
Data_Process.elf:     file format elf32-littlenios2
Data_Process.elf
architecture: nios2:r1, flags 0x00000112:
EXEC_P, HAS_SYMS, D_PAGED
start address 0x00008020

Program Header:
    LOAD off    0x00001020 vaddr 0x00008020 paddr 0x00008020 align 2**12
         filesz 0x00002b4c memsz 0x00002b4c flags r-x
    LOAD off    0x00003b6c vaddr 0x0000ab6c paddr 0x0000ac5c align 2**12
         filesz 0x000000f0 memsz 0x000000f0 flags rw-
    LOAD off    0x00003d4c vaddr 0x0000ad4c paddr 0x0000ad4c align 2**12
         filesz 0x00000000 memsz 0x000009d0 flags rw-
    LOAD off    0x00004000 vaddr 0x00012000 paddr 0x00012000 align 2**12
         filesz 0x00000020 memsz 0x00000020 flags r-x

Sections:
Idx Name          Size      VMA       LMA       File off  Algn
  0 .entry        00000020  00012000  00012000  00004000  2**5
                  CONTENTS, ALLOC, LOAD, READONLY, CODE
  1 .exceptions   00000000  00008020  00008020  00004020  2**0
                  CONTENTS
  2 .text         00002a0c  00008020  00008020  00001020  2**2
                  CONTENTS, ALLOC, LOAD, READONLY, CODE
  3 .rodata       00000140  0000aa2c  0000aa2c  00003a2c  2**1
                  CONTENTS, ALLOC, LOAD, READONLY, DATA
  4 .rwdata       000000f0  0000ab6c  0000ac5c  00003b6c  2**2
                  CONTENTS, ALLOC, LOAD, DATA, SMALL_DATA
  5 .bss          000009d0  0000ad4c  0000ad4c  00003d4c  2**2
                  ALLOC, SMALL_DATA
  6 .RAM          00000000  0000b71c  0000b71c  00004020  2**0
                  CONTENTS
  7 .ROM          00000000  00012020  00012020  00004020  2**0
                  CONTENTS
  8 .comment      00000023  00000000  00000000  00004020  2**0
                  CONTENTS, READONLY
  9 .debug_aranges 00000330  00000000  00000000  00004048  2**3
                  CONTENTS, READONLY, DEBUGGING
 10 .debug_info   0000365b  00000000  00000000  00004378  2**0
                  CONTENTS, READONLY, DEBUGGING
 11 .debug_abbrev 000015e5  00000000  00000000  000079d3  2**0
                  CONTENTS, READONLY, DEBUGGING
 12 .debug_line   000019f8  00000000  00000000  00008fb8  2**0
                  CONTENTS, READONLY, DEBUGGING
 13 .debug_frame  0000053c  00000000  00000000  0000a9b0  2**2
                  CONTENTS, READONLY, DEBUGGING
 14 .debug_str    000011e9  00000000  00000000  0000aeec  2**0
                  CONTENTS, READONLY, DEBUGGING
 15 .debug_loc    0000251c  00000000  00000000  0000c0d5  2**0
                  CONTENTS, READONLY, DEBUGGING
 16 .debug_alt_sim_info 00000010  00000000  00000000  0000e5f4  2**2
                  CONTENTS, READONLY, DEBUGGING
 17 .debug_ranges 000003f0  00000000  00000000  0000e608  2**3
                  CONTENTS, READONLY, DEBUGGING
 18 .thread_model 00000003  00000000  00000000  0000fe36  2**0
                  CONTENTS, READONLY
 19 .cpu          0000000a  00000000  00000000  0000fe39  2**0
                  CONTENTS, READONLY
 20 .qsys         00000001  00000000  00000000  0000fe43  2**0
                  CONTENTS, READONLY
 21 .simulation_enabled 00000001  00000000  00000000  0000fe44  2**0
                  CONTENTS, READONLY
 22 .sysid_hash   00000004  00000000  00000000  0000fe45  2**0
                  CONTENTS, READONLY
 23 .sysid_base   00000004  00000000  00000000  0000fe49  2**0
                  CONTENTS, READONLY
 24 .sysid_time   00000004  00000000  00000000  0000fe4d  2**0
                  CONTENTS, READONLY
 25 .stderr_dev   00000009  00000000  00000000  0000fe51  2**0
                  CONTENTS, READONLY
 26 .stdin_dev    00000009  00000000  00000000  0000fe5a  2**0
                  CONTENTS, READONLY
 27 .stdout_dev   00000009  00000000  00000000  0000fe63  2**0
                  CONTENTS, READONLY
 28 .sopc_system_name 0000000b  00000000  00000000  0000fe6c  2**0
                  CONTENTS, READONLY
 29 .quartus_project_dir 00000028  00000000  00000000  0000fe77  2**0
                  CONTENTS, READONLY
 30 .jdi          00004f87  00000000  00000000  0000fe9f  2**0
                  CONTENTS, READONLY
 31 .sopcinfo     000ba4c4  00000000  00000000  00014e26  2**0
                  CONTENTS, READONLY
SYMBOL TABLE:
00012000 l    d  .entry	00000000 .entry
00008020 l    d  .exceptions	00000000 .exceptions
00008020 l    d  .text	00000000 .text
0000aa2c l    d  .rodata	00000000 .rodata
0000ab6c l    d  .rwdata	00000000 .rwdata
0000ad4c l    d  .bss	00000000 .bss
0000b71c l    d  .RAM	00000000 .RAM
00012020 l    d  .ROM	00000000 .ROM
00000000 l    d  .comment	00000000 .comment
00000000 l    d  .debug_aranges	00000000 .debug_aranges
00000000 l    d  .debug_info	00000000 .debug_info
00000000 l    d  .debug_abbrev	00000000 .debug_abbrev
00000000 l    d  .debug_line	00000000 .debug_line
00000000 l    d  .debug_frame	00000000 .debug_frame
00000000 l    d  .debug_str	00000000 .debug_str
00000000 l    d  .debug_loc	00000000 .debug_loc
00000000 l    d  .debug_alt_sim_info	00000000 .debug_alt_sim_info
00000000 l    d  .debug_ranges	00000000 .debug_ranges
00000000 l    df *ABS*	00000000 ../Data_Process_bsp//obj/HAL/src/crt0.o
00008058 l       .text	00000000 alt_after_alt_main
00000000 l    df *ABS*	00000000 hello_world.c
0000ad90 l     O .bss	00000248 an_dx
0000afd8 l     O .bss	00000258 an_x
00000000 l    df *ABS*	00000000 lib2-divmod.c
00000000 l    df *ABS*	00000000 lib2-mul.c
00000000 l    df *ABS*	00000000 divsf3.c
00000000 l    df *ABS*	00000000 mulsf3.c
00000000 l    df *ABS*	00000000 subsf3.c
00000000 l    df *ABS*	00000000 fixsfsi.c
00000000 l    df *ABS*	00000000 floatsisf.c
00000000 l    df *ABS*	00000000 libgcc2.c
00000000 l    df *ABS*	00000000 libgcc2.c
00000000 l    df *ABS*	00000000 rand.c
0000ad78 l     O .bss	00000008 _randbits
00000000 l    df *ABS*	00000000 libgcc2.c
00000000 l    df *ABS*	00000000 alt_load.c
00000000 l    df *ABS*	00000000 alt_main.c
00000000 l    df *ABS*	00000000 alt_sys_init.c
00000000 l    df *ABS*	00000000 alt_close.c
00000000 l    df *ABS*	00000000 alt_dcache_flush_all.c
00000000 l    df *ABS*	00000000 alt_errno.c
00000000 l    df *ABS*	00000000 alt_icache_flush_all.c
00000000 l    df *ABS*	00000000 altera_nios2_gen2_irq.c
00000000 l    df *ABS*	00000000 exit.c
00000000 l    df *ABS*	00000000 int_errno.c
00000000 l    df *ABS*	00000000 __call_atexit.c
00000000 l    df *ABS*	00000000 impure.c
0000ab6c l     O .rwdata	000000e0 impure_data
00000000 l    df *ABS*	00000000 alt_exit.c
0000a7b8 g     F .text	0000003c alt_main
0000ac5c g       *ABS*	00000000 __flash_rwdata_start
0000b230 g     O .bss	00000014 b
000095d8 g     F .text	00000440 .hidden __divsf3
0000a32c g     F .text	00000070 .hidden __fixsfsi
0000ac4c g     O .rwdata	00000004 jtag_uart
0000a860 g     F .text	00000008 altera_nios2_gen2_irq_init
00012000 g     F .entry	0000000c __reset
00008020 g       *ABS*	00000000 __flash_exceptions_start
0000ad50 g     O .bss	00000004 f
0000ad8c g     O .bss	00000004 errno
0000ad54 g     O .bss	00000004 n_ir_buffer_length
0000ad84 g     O .bss	00000004 alt_argv
00012c4c g       *ABS*	00000000 _gp
00009e48 g     F .text	000004e4 .hidden __subsf3
00009000 g     F .text	00000188 maxim_remove_close_peaks
000094f4 g     F .text	00000064 .hidden __udivsi3
0000ad4c g     O .bss	00000004 end_0_edge
00008864 g     F .text	0000052c maxim_heart_rate_and_oxygen_saturation
0000b244 g     O .bss	00000258 aun_ir_buffer
0000ac54 g     O .rwdata	00000004 _global_impure_ptr
0000b71c g       *ABS*	00000000 __bss_end
00012000 g       *ABS*	00000000 __alt_mem_ROM
000092a8 g     F .text	00000154 maxim_sort_indices_descend
00008e14 g     F .text	000001ec maxim_peaks_above_min_height
0000a858 g     F .text	00000004 alt_dcache_flush_all
0000ac5c g       *ABS*	00000000 __ram_rwdata_end
0000ab6c g       *ABS*	00000000 __ram_rodata_end
00009558 g     F .text	00000058 .hidden __umodsi3
0000b71c g       *ABS*	00000000 end
0000b49c g     O .bss	00000258 aun_red_buffer
0000ad58 g     O .bss	00000004 i
0000d000 g       *ABS*	00000000 __alt_stack_pointer
0000a4c0 g     F .text	00000064 .hidden __clzsi2
0000ad5c g     O .bss	00000004 n_heart_rate
0000a888 g     F .text	00000190 __call_exitprocs
0000ad60 g     O .bss	00000002 end_o
00008020 g     F .text	0000003c _start
0000a538 g     F .text	00000060 rand
0000a814 g     F .text	00000004 alt_sys_init
0000a39c g     F .text	00000124 .hidden __floatsisf
00009188 g     F .text	00000120 maxim_sort_ascend
000095b0 g     F .text	00000028 .hidden __mulsi3
0000ab6c g       *ABS*	00000000 __ram_rwdata_start
0000aa2c g       *ABS*	00000000 __ram_rodata_start
0000b6f4 g     O .bss	00000014 c
0000b71c g       *ABS*	00000000 __alt_stack_base
0000ad4c g       *ABS*	00000000 __bss_start
0000805c g     F .text	00000808 main
00008000 g       *ABS*	00000000 __alt_mem_RAM
0000ad80 g     O .bss	00000004 alt_envp
0000a524 g     F .text	00000014 srand
0000ac50 g     O .rwdata	00000004 alt_errno
000093fc g     F .text	00000084 .hidden __divsi3
0000ad64 g     O .bss	00000004 d
00009a18 g     F .text	00000430 .hidden __mulsf3
00008d90 g     F .text	00000084 maxim_find_peaks
0000aa2c g       *ABS*	00000000 __flash_rodata_start
0000aa2c g     O .rodata	0000003e auw_hamm
0000a7f4 g     F .text	00000020 alt_irq_init
0000aa6a g     O .rodata	00000100 .hidden __clz_tab
0000ac58 g     O .rwdata	00000004 _impure_ptr
0000ad88 g     O .bss	00000004 alt_argc
0000ad68 g     O .bss	00000004 h
00008020 g       *ABS*	00000000 __ram_exceptions_start
0000ac5c g       *ABS*	00000000 _edata
0000ad6c g     O .bss	00000001 ch_hr_valid
0000b71c g       *ABS*	00000000 _end
00008020 g       *ABS*	00000000 __ram_exceptions_end
0000a868 g     F .text	00000020 exit
00009480 g     F .text	00000074 .hidden __modsi3
0000d000 g       *ABS*	00000000 __alt_data_end
0000ad70 g     O .bss	00000004 e
0000ad74 g     O .bss	00000001 uch_dummy
0000aa18 g     F .text	00000014 _exit
0000a598 g     F .text	0000010c .hidden __muldi3
0000b708 g     O .bss	00000014 ch
0000a85c g     F .text	00000004 alt_icache_flush_all
0000a818 g     F .text	00000040 close
0000a6a4 g     F .text	00000114 alt_load



Disassembly of section .entry:

00012000 <__reset>:
 * Jump to the _start entry point in the .text section if reset code
 * is allowed or if optimizing for RTL simulation.
 */
#if defined(ALT_ALLOW_CODE_AT_RESET) || defined(ALT_SIM_OPTIMIZE)
    /* Jump to the _start entry point in the .text section. */
    movhi r1, %hi(_start)
   12000:	00400034 	movhi	at,0
    ori r1, r1, %lo(_start)
   12004:	08600814 	ori	at,at,32800
    jmp r1
   12008:	0800683a 	jmp	at
	...

Disassembly of section .text:

00008020 <_start>:

    /*
     * Now that the caches are initialized, set up the stack pointer and global pointer.
     * The values provided by the linker are assumed to be correctly aligned.
     */
    movhi sp, %hi(__alt_stack_pointer)
    8020:	06c00034 	movhi	sp,0
    ori sp, sp, %lo(__alt_stack_pointer)
    8024:	def40014 	ori	sp,sp,53248
    movhi gp, %hi(_gp)
    8028:	06800074 	movhi	gp,1
    ori gp, gp, %lo(_gp)
    802c:	d68b1314 	ori	gp,gp,11340
 */
#ifndef ALT_SIM_OPTIMIZE
    /* Log that the BSS is about to be cleared. */
    ALT_LOG_PUTS(alt_log_msg_bss)

    movhi r2, %hi(__bss_start)
    8030:	00800034 	movhi	r2,0
    ori r2, r2, %lo(__bss_start)
    8034:	10ab5314 	ori	r2,r2,44364

    movhi r3, %hi(__bss_end)
    8038:	00c00034 	movhi	r3,0
    ori r3, r3, %lo(__bss_end)
    803c:	18edc714 	ori	r3,r3,46876

    beq r2, r3, 1f
    8040:	10c00326 	beq	r2,r3,8050 <_start+0x30>

0:
    stw zero, (r2)
    8044:	10000015 	stw	zero,0(r2)
    addi r2, r2, 4
    8048:	10800104 	addi	r2,r2,4
    bltu r2, r3, 0b
    804c:	10fffd36 	bltu	r2,r3,8044 <_gp+0xffff53f8>
     * section aren't defined until alt_load() has been called).
     */
    mov   et, zero
#endif

    call alt_load
    8050:	000a6a40 	call	a6a4 <alt_load>

    /* Log that alt_main is about to be called. */
    ALT_LOG_PUTS(alt_log_msg_alt_main)

    /* Call the C entry point. It should never return. */
    call alt_main
    8054:	000a7b80 	call	a7b8 <alt_main>

00008058 <alt_after_alt_main>:

    /* Wait in infinite loop in case alt_main does return. */
alt_after_alt_main:
    br alt_after_alt_main
    8058:	003fff06 	br	8058 <_gp+0xffff540c>

0000805c <main>:
alt_32 h;
int d,e,f;


int main()
{
    805c:	defff904 	addi	sp,sp,-28
    8060:	dfc00615 	stw	ra,24(sp)
    8064:	df000515 	stw	fp,20(sp)
    8068:	dc400415 	stw	r17,16(sp)
    806c:	dc000315 	stw	r16,12(sp)
    8070:	df000504 	addi	fp,sp,20
  end_o=0;
    8074:	d020450d 	sth	zero,-32492(gp)
  int m=1;
    8078:	00800044 	movi	r2,1
    807c:	e0bffc15 	stw	r2,-16(fp)
  int k=0;
    8080:	e03ffd15 	stw	zero,-12(fp)
  //init_end_o();

  for(i=0;i<5;i++)
    8084:	d0204315 	stw	zero,-32500(gp)
    8088:	00000a06 	br	80b4 <main+0x58>
  {
	  ch[i]=0;
    808c:	d0e04317 	ldw	r3,-32500(gp)
    8090:	00800074 	movhi	r2,1
    8094:	10adc204 	addi	r2,r2,-18680
    8098:	18c7883a 	add	r3,r3,r3
    809c:	18c7883a 	add	r3,r3,r3
    80a0:	10c5883a 	add	r2,r2,r3
    80a4:	10000015 	stw	zero,0(r2)
  end_o=0;
  int m=1;
  int k=0;
  //init_end_o();

  for(i=0;i<5;i++)
    80a8:	d0a04317 	ldw	r2,-32500(gp)
    80ac:	10800044 	addi	r2,r2,1
    80b0:	d0a04315 	stw	r2,-32500(gp)
    80b4:	d0a04317 	ldw	r2,-32500(gp)
    80b8:	10800150 	cmplti	r2,r2,5
    80bc:	103ff31e 	bne	r2,zero,808c <_gp+0xffff5440>
  {
	  ch[i]=0;
  }

  n_ir_buffer_length=150;
    80c0:	00802584 	movi	r2,150
    80c4:	d0a04215 	stw	r2,-32504(gp)

  while(m)
    80c8:	00002506 	br	8160 <main+0x104>
  {
	  end_o=IORD_ALTERA_AVALON_PIO_DATA(END_O_BASE);
    80cc:	00800074 	movhi	r2,1
    80d0:	10944804 	addi	r2,r2,20768
    80d4:	10800037 	ldwio	r2,0(r2)
    80d8:	d0a0450d 	sth	r2,-32492(gp)
	  if((end_o==1))
    80dc:	d0a0450b 	ldhu	r2,-32492(gp)
    80e0:	10bfffcc 	andi	r2,r2,65535
    80e4:	10800058 	cmpnei	r2,r2,1
    80e8:	10001d1e 	bne	r2,zero,8160 <main+0x104>
	  {
		  if((k==499))
    80ec:	e0bffd17 	ldw	r2,-12(fp)
    80f0:	10807cd8 	cmpnei	r2,r2,499
    80f4:	1000021e 	bne	r2,zero,8100 <main+0xa4>
		  {
			  m=0;
    80f8:	e03ffc15 	stw	zero,-16(fp)
    80fc:	00001806 	br	8160 <main+0x104>
		  }
		  else
		  {

			  aun_red_buffer[k] = IORD_ALTERA_AVALON_PIO_DATA(MAX30102_0_BASE);
    8100:	00800074 	movhi	r2,1
    8104:	10945004 	addi	r2,r2,20800
    8108:	11000037 	ldwio	r4,0(r2)
    810c:	00800074 	movhi	r2,1
    8110:	10ad2704 	addi	r2,r2,-19300
    8114:	e0fffd17 	ldw	r3,-12(fp)
    8118:	18c7883a 	add	r3,r3,r3
    811c:	18c7883a 	add	r3,r3,r3
    8120:	10c5883a 	add	r2,r2,r3
    8124:	11000015 	stw	r4,0(r2)
			  aun_ir_buffer[k]  = IORD_ALTERA_AVALON_PIO_DATA(MAX30102_1_BASE);
    8128:	00800074 	movhi	r2,1
    812c:	10944c04 	addi	r2,r2,20784
    8130:	10800037 	ldwio	r2,0(r2)
    8134:	1009883a 	mov	r4,r2
    8138:	00800074 	movhi	r2,1
    813c:	10ac9104 	addi	r2,r2,-19900
    8140:	e0fffd17 	ldw	r3,-12(fp)
    8144:	18c7883a 	add	r3,r3,r3
    8148:	18c7883a 	add	r3,r3,r3
    814c:	10c5883a 	add	r2,r2,r3
    8150:	11000015 	stw	r4,0(r2)
			  k++;
    8154:	e0bffd17 	ldw	r2,-12(fp)
    8158:	10800044 	addi	r2,r2,1
    815c:	e0bffd15 	stw	r2,-12(fp)
	  ch[i]=0;
  }

  n_ir_buffer_length=150;

  while(m)
    8160:	e0bffc17 	ldw	r2,-16(fp)
    8164:	103fd91e 	bne	r2,zero,80cc <_gp+0xffff5480>
		  }
		  //end_0_edge=0;
	  }
  }

  k=0;
    8168:	e03ffd15 	stw	zero,-12(fp)


  while(1)
  {

	  end_o=IORD_ALTERA_AVALON_PIO_DATA(END_O_BASE);
    816c:	00800074 	movhi	r2,1
    8170:	10944804 	addi	r2,r2,20768
    8174:	10800037 	ldwio	r2,0(r2)
    8178:	d0a0450d 	sth	r2,-32492(gp)
      if((end_o==1))
    817c:	d0a0450b 	ldhu	r2,-32492(gp)
    8180:	10bfffcc 	andi	r2,r2,65535
    8184:	10800058 	cmpnei	r2,r2,1
    8188:	103ff81e 	bne	r2,zero,816c <_gp+0xffff5520>
      {

		  ch[0]=IORD_ALTERA_AVALON_PIO_DATA(AIN_CH0_BASE);
    818c:	00800074 	movhi	r2,1
    8190:	10942804 	addi	r2,r2,20640
    8194:	10800037 	ldwio	r2,0(r2)
    8198:	1009883a 	mov	r4,r2
    819c:	000a39c0 	call	a39c <__floatsisf>
    81a0:	1007883a 	mov	r3,r2
    81a4:	00800074 	movhi	r2,1
    81a8:	10adc204 	addi	r2,r2,-18680
    81ac:	10c00015 	stw	r3,0(r2)
		  ch[1]=IORD_ALTERA_AVALON_PIO_DATA(AIN_CH1_BASE);
    81b0:	00800074 	movhi	r2,1
    81b4:	10942c04 	addi	r2,r2,20656
    81b8:	10800037 	ldwio	r2,0(r2)
    81bc:	1009883a 	mov	r4,r2
    81c0:	000a39c0 	call	a39c <__floatsisf>
    81c4:	1007883a 	mov	r3,r2
    81c8:	00800074 	movhi	r2,1
    81cc:	10adc204 	addi	r2,r2,-18680
    81d0:	10c00115 	stw	r3,4(r2)
		  ch[2]=IORD_ALTERA_AVALON_PIO_DATA(AIN_CH2_BASE);
    81d4:	00800074 	movhi	r2,1
    81d8:	10943004 	addi	r2,r2,20672
    81dc:	10800037 	ldwio	r2,0(r2)
    81e0:	1009883a 	mov	r4,r2
    81e4:	000a39c0 	call	a39c <__floatsisf>
    81e8:	1007883a 	mov	r3,r2
    81ec:	00800074 	movhi	r2,1
    81f0:	10adc204 	addi	r2,r2,-18680
    81f4:	10c00215 	stw	r3,8(r2)
		  ch[3]=IORD_ALTERA_AVALON_PIO_DATA(AIN_CH3_BASE);
    81f8:	00800074 	movhi	r2,1
    81fc:	10943404 	addi	r2,r2,20688
    8200:	10800037 	ldwio	r2,0(r2)
    8204:	1009883a 	mov	r4,r2
    8208:	000a39c0 	call	a39c <__floatsisf>
    820c:	1007883a 	mov	r3,r2
    8210:	00800074 	movhi	r2,1
    8214:	10adc204 	addi	r2,r2,-18680
    8218:	10c00315 	stw	r3,12(r2)
		  ch[4]=IORD_ALTERA_AVALON_PIO_DATA(AIN_CH4_BASE);
    821c:	00800074 	movhi	r2,1
    8220:	10943804 	addi	r2,r2,20704
    8224:	10800037 	ldwio	r2,0(r2)
    8228:	1009883a 	mov	r4,r2
    822c:	000a39c0 	call	a39c <__floatsisf>
    8230:	1007883a 	mov	r3,r2
    8234:	00800074 	movhi	r2,1
    8238:	10adc204 	addi	r2,r2,-18680
    823c:	10c00415 	stw	r3,16(r2)


		  for(i=0;i<4;i++)
    8240:	d0204315 	stw	zero,-32500(gp)
    8244:	00005906 	br	83ac <main+0x350>
		  		  {
		  		  	ch[i]=ch[i]*5/4096*20;
    8248:	d4204317 	ldw	r16,-32500(gp)
    824c:	d0e04317 	ldw	r3,-32500(gp)
    8250:	00800074 	movhi	r2,1
    8254:	10adc204 	addi	r2,r2,-18680
    8258:	18c7883a 	add	r3,r3,r3
    825c:	18c7883a 	add	r3,r3,r3
    8260:	10c5883a 	add	r2,r2,r3
    8264:	10c00017 	ldw	r3,0(r2)
    8268:	01502834 	movhi	r5,16544
    826c:	1809883a 	mov	r4,r3
    8270:	0009a180 	call	9a18 <__mulsf3>
    8274:	1007883a 	mov	r3,r2
    8278:	1805883a 	mov	r2,r3
    827c:	01516034 	movhi	r5,17792
    8280:	1009883a 	mov	r4,r2
    8284:	00095d80 	call	95d8 <__divsf3>
    8288:	1007883a 	mov	r3,r2
    828c:	1805883a 	mov	r2,r3
    8290:	01506834 	movhi	r5,16800
    8294:	1009883a 	mov	r4,r2
    8298:	0009a180 	call	9a18 <__mulsf3>
    829c:	1007883a 	mov	r3,r2
    82a0:	1809883a 	mov	r4,r3
    82a4:	00800074 	movhi	r2,1
    82a8:	10adc204 	addi	r2,r2,-18680
    82ac:	8407883a 	add	r3,r16,r16
    82b0:	18c7883a 	add	r3,r3,r3
    82b4:	10c5883a 	add	r2,r2,r3
    82b8:	11000015 	stw	r4,0(r2)
		  		  	b[i]=ch[i]/10;
    82bc:	d4204317 	ldw	r16,-32500(gp)
    82c0:	d0e04317 	ldw	r3,-32500(gp)
    82c4:	00800074 	movhi	r2,1
    82c8:	10adc204 	addi	r2,r2,-18680
    82cc:	18c7883a 	add	r3,r3,r3
    82d0:	18c7883a 	add	r3,r3,r3
    82d4:	10c5883a 	add	r2,r2,r3
    82d8:	10c00017 	ldw	r3,0(r2)
    82dc:	01504834 	movhi	r5,16672
    82e0:	1809883a 	mov	r4,r3
    82e4:	00095d80 	call	95d8 <__divsf3>
    82e8:	1007883a 	mov	r3,r2
    82ec:	1805883a 	mov	r2,r3
    82f0:	1009883a 	mov	r4,r2
    82f4:	000a32c0 	call	a32c <__fixsfsi>
    82f8:	1009883a 	mov	r4,r2
    82fc:	00800074 	movhi	r2,1
    8300:	10ac8c04 	addi	r2,r2,-19920
    8304:	8407883a 	add	r3,r16,r16
    8308:	18c7883a 	add	r3,r3,r3
    830c:	10c5883a 	add	r2,r2,r3
    8310:	11000015 	stw	r4,0(r2)
		  		    c[i]=ch[i]-10*b[i];
    8314:	d4204317 	ldw	r16,-32500(gp)
    8318:	d0e04317 	ldw	r3,-32500(gp)
    831c:	00800074 	movhi	r2,1
    8320:	10adc204 	addi	r2,r2,-18680
    8324:	18c7883a 	add	r3,r3,r3
    8328:	18c7883a 	add	r3,r3,r3
    832c:	10c5883a 	add	r2,r2,r3
    8330:	14400017 	ldw	r17,0(r2)
    8334:	d0e04317 	ldw	r3,-32500(gp)
    8338:	00800074 	movhi	r2,1
    833c:	10ac8c04 	addi	r2,r2,-19920
    8340:	18c7883a 	add	r3,r3,r3
    8344:	18c7883a 	add	r3,r3,r3
    8348:	10c5883a 	add	r2,r2,r3
    834c:	10800017 	ldw	r2,0(r2)
    8350:	01400284 	movi	r5,10
    8354:	1009883a 	mov	r4,r2
    8358:	00095b00 	call	95b0 <__mulsi3>
    835c:	1009883a 	mov	r4,r2
    8360:	000a39c0 	call	a39c <__floatsisf>
    8364:	1007883a 	mov	r3,r2
    8368:	180b883a 	mov	r5,r3
    836c:	8809883a 	mov	r4,r17
    8370:	0009e480 	call	9e48 <__subsf3>
    8374:	1007883a 	mov	r3,r2
    8378:	1805883a 	mov	r2,r3
    837c:	1009883a 	mov	r4,r2
    8380:	000a32c0 	call	a32c <__fixsfsi>
    8384:	1009883a 	mov	r4,r2
    8388:	00800074 	movhi	r2,1
    838c:	10adbd04 	addi	r2,r2,-18700
    8390:	8407883a 	add	r3,r16,r16
    8394:	18c7883a 	add	r3,r3,r3
    8398:	10c5883a 	add	r2,r2,r3
    839c:	11000015 	stw	r4,0(r2)
		  ch[2]=IORD_ALTERA_AVALON_PIO_DATA(AIN_CH2_BASE);
		  ch[3]=IORD_ALTERA_AVALON_PIO_DATA(AIN_CH3_BASE);
		  ch[4]=IORD_ALTERA_AVALON_PIO_DATA(AIN_CH4_BASE);


		  for(i=0;i<4;i++)
    83a0:	d0a04317 	ldw	r2,-32500(gp)
    83a4:	10800044 	addi	r2,r2,1
    83a8:	d0a04315 	stw	r2,-32500(gp)
    83ac:	d0a04317 	ldw	r2,-32500(gp)
    83b0:	10800110 	cmplti	r2,r2,4
    83b4:	103fa41e 	bne	r2,zero,8248 <_gp+0xffff55fc>
		  		    c[i]=ch[i]-10*b[i];

		  		     //printf("CH%d=%d.%dV\r\n",i,b[i],c[i]);
		  		   }
		  //printf("a");
		  ch[4]=31-(ch[4]*5/4096*19);  //电压值转换为浓度值
    83b8:	00800074 	movhi	r2,1
    83bc:	10adc204 	addi	r2,r2,-18680
    83c0:	10c00417 	ldw	r3,16(r2)
    83c4:	01502834 	movhi	r5,16544
    83c8:	1809883a 	mov	r4,r3
    83cc:	0009a180 	call	9a18 <__mulsf3>
    83d0:	1007883a 	mov	r3,r2
    83d4:	1805883a 	mov	r2,r3
    83d8:	01516034 	movhi	r5,17792
    83dc:	1009883a 	mov	r4,r2
    83e0:	00095d80 	call	95d8 <__divsf3>
    83e4:	1007883a 	mov	r3,r2
    83e8:	1805883a 	mov	r2,r3
    83ec:	01506634 	movhi	r5,16792
    83f0:	1009883a 	mov	r4,r2
    83f4:	0009a180 	call	9a18 <__mulsf3>
    83f8:	1007883a 	mov	r3,r2
    83fc:	1805883a 	mov	r2,r3
    8400:	100b883a 	mov	r5,r2
    8404:	01107e34 	movhi	r4,16888
    8408:	0009e480 	call	9e48 <__subsf3>
    840c:	1009883a 	mov	r4,r2
    8410:	2007883a 	mov	r3,r4
    8414:	00800074 	movhi	r2,1
    8418:	10adc204 	addi	r2,r2,-18680
    841c:	10c00415 	stw	r3,16(r2)
		  b[4]=ch[4]/10;
    8420:	00800074 	movhi	r2,1
    8424:	10adc204 	addi	r2,r2,-18680
    8428:	10c00417 	ldw	r3,16(r2)
    842c:	01504834 	movhi	r5,16672
    8430:	1809883a 	mov	r4,r3
    8434:	00095d80 	call	95d8 <__divsf3>
    8438:	1007883a 	mov	r3,r2
    843c:	1805883a 	mov	r2,r3
    8440:	1009883a 	mov	r4,r2
    8444:	000a32c0 	call	a32c <__fixsfsi>
    8448:	1007883a 	mov	r3,r2
    844c:	00800074 	movhi	r2,1
    8450:	10ac8c04 	addi	r2,r2,-19920
    8454:	10c00415 	stw	r3,16(r2)
		  c[4]=ch[4]-10*b[4];
    8458:	00800074 	movhi	r2,1
    845c:	10adc204 	addi	r2,r2,-18680
    8460:	14000417 	ldw	r16,16(r2)
    8464:	00800074 	movhi	r2,1
    8468:	10ac8c04 	addi	r2,r2,-19920
    846c:	10800417 	ldw	r2,16(r2)
    8470:	01400284 	movi	r5,10
    8474:	1009883a 	mov	r4,r2
    8478:	00095b00 	call	95b0 <__mulsi3>
    847c:	1009883a 	mov	r4,r2
    8480:	000a39c0 	call	a39c <__floatsisf>
    8484:	1007883a 	mov	r3,r2
    8488:	180b883a 	mov	r5,r3
    848c:	8009883a 	mov	r4,r16
    8490:	0009e480 	call	9e48 <__subsf3>
    8494:	1007883a 	mov	r3,r2
    8498:	1805883a 	mov	r2,r3
    849c:	1009883a 	mov	r4,r2
    84a0:	000a32c0 	call	a32c <__fixsfsi>
    84a4:	1007883a 	mov	r3,r2
    84a8:	00800074 	movhi	r2,1
    84ac:	10adbd04 	addi	r2,r2,-18700
    84b0:	10c00415 	stw	r3,16(r2)

		 IOWR_ALTERA_AVALON_PIO_DATA(H2_TEN_BASE,b[0]);
    84b4:	00800074 	movhi	r2,1
    84b8:	10ac8c04 	addi	r2,r2,-19920
    84bc:	10c00017 	ldw	r3,0(r2)
    84c0:	00800074 	movhi	r2,1
    84c4:	10942404 	addi	r2,r2,20624
    84c8:	10c00035 	stwio	r3,0(r2)
		 IOWR_ALTERA_AVALON_PIO_DATA(H2_ONE_BASE,c[0]);
    84cc:	00800074 	movhi	r2,1
    84d0:	10adbd04 	addi	r2,r2,-18700
    84d4:	10c00017 	ldw	r3,0(r2)
    84d8:	00800074 	movhi	r2,1
    84dc:	10942004 	addi	r2,r2,20608
    84e0:	10c00035 	stwio	r3,0(r2)
		 IOWR_ALTERA_AVALON_PIO_DATA(LIQUEFIED_TEN_BASE,b[1]);
    84e4:	00800074 	movhi	r2,1
    84e8:	10ac8c04 	addi	r2,r2,-19920
    84ec:	10c00117 	ldw	r3,4(r2)
    84f0:	00800074 	movhi	r2,1
    84f4:	10941c04 	addi	r2,r2,20592
    84f8:	10c00035 	stwio	r3,0(r2)
		 IOWR_ALTERA_AVALON_PIO_DATA(LIQUEFIED_ONE_BASE,c[1]);
    84fc:	00800074 	movhi	r2,1
    8500:	10adbd04 	addi	r2,r2,-18700
    8504:	10c00117 	ldw	r3,4(r2)
    8508:	00800074 	movhi	r2,1
    850c:	10941804 	addi	r2,r2,20576
    8510:	10c00035 	stwio	r3,0(r2)
		 IOWR_ALTERA_AVALON_PIO_DATA(NATURAL_TEN_BASE,b[2]);
    8514:	00800074 	movhi	r2,1
    8518:	10ac8c04 	addi	r2,r2,-19920
    851c:	10c00217 	ldw	r3,8(r2)
    8520:	00800074 	movhi	r2,1
    8524:	10941404 	addi	r2,r2,20560
    8528:	10c00035 	stwio	r3,0(r2)
		 IOWR_ALTERA_AVALON_PIO_DATA(NATURAL_ONE_BASE,c[2]);
    852c:	00800074 	movhi	r2,1
    8530:	10adbd04 	addi	r2,r2,-18700
    8534:	10c00217 	ldw	r3,8(r2)
    8538:	00800074 	movhi	r2,1
    853c:	10941004 	addi	r2,r2,20544
    8540:	10c00035 	stwio	r3,0(r2)
		 IOWR_ALTERA_AVALON_PIO_DATA(HARMFUL_TEN_BASE,b[3]);
    8544:	00800074 	movhi	r2,1
    8548:	10ac8c04 	addi	r2,r2,-19920
    854c:	10c00317 	ldw	r3,12(r2)
    8550:	00800074 	movhi	r2,1
    8554:	10940c04 	addi	r2,r2,20528
    8558:	10c00035 	stwio	r3,0(r2)
		 IOWR_ALTERA_AVALON_PIO_DATA(HARMFUL_ONE_BASE,c[3]);
    855c:	00800074 	movhi	r2,1
    8560:	10adbd04 	addi	r2,r2,-18700
    8564:	10c00317 	ldw	r3,12(r2)
    8568:	00800074 	movhi	r2,1
    856c:	10940804 	addi	r2,r2,20512
    8570:	10c00035 	stwio	r3,0(r2)
		 IOWR_ALTERA_AVALON_PIO_DATA(OXY_TEN_BASE,b[4]);
    8574:	00800074 	movhi	r2,1
    8578:	10ac8c04 	addi	r2,r2,-19920
    857c:	10c00417 	ldw	r3,16(r2)
    8580:	00800074 	movhi	r2,1
    8584:	10940404 	addi	r2,r2,20496
    8588:	10c00035 	stwio	r3,0(r2)
		 IOWR_ALTERA_AVALON_PIO_DATA(OXY_ONE_BASE,c[4]);
    858c:	00800074 	movhi	r2,1
    8590:	10adbd04 	addi	r2,r2,-18700
    8594:	10c00417 	ldw	r3,16(r2)
    8598:	00800074 	movhi	r2,1
    859c:	10940004 	addi	r2,r2,20480
    85a0:	10c00035 	stwio	r3,0(r2)

		  printf("%d\r\n",p);
*/
		  //------心率-----

    	  	if((k==149))
    85a4:	e0bffd17 	ldw	r2,-12(fp)
    85a8:	10802558 	cmpnei	r2,r2,149
    85ac:	10000c1e 	bne	r2,zero,85e0 <main+0x584>
    	  	{

    	  		k=0;
    85b0:	e03ffd15 	stw	zero,-12(fp)
    	  		maxim_heart_rate_and_oxygen_saturation(aun_ir_buffer, n_ir_buffer_length, aun_red_buffer,&n_heart_rate, &ch_hr_valid);
    85b4:	d0e04217 	ldw	r3,-32504(gp)
    85b8:	d0a04804 	addi	r2,gp,-32480
    85bc:	d8800015 	stw	r2,0(sp)
    85c0:	d1e04404 	addi	r7,gp,-32496
    85c4:	01800074 	movhi	r6,1
    85c8:	31ad2704 	addi	r6,r6,-19300
    85cc:	180b883a 	mov	r5,r3
    85d0:	01000074 	movhi	r4,1
    85d4:	212c9104 	addi	r4,r4,-19900
    85d8:	00088640 	call	8864 <maxim_heart_rate_and_oxygen_saturation>
    85dc:	003ee306 	br	816c <_gp+0xffff5520>
    	  	}

    	  	else if((k<=100))
    85e0:	e0bffd17 	ldw	r2,-12(fp)
    85e4:	10801948 	cmpgei	r2,r2,101
    85e8:	1000221e 	bne	r2,zero,8674 <main+0x618>
    	  	{

	            aun_red_buffer[k]=aun_red_buffer[k+50];
    85ec:	e0bffd17 	ldw	r2,-12(fp)
    85f0:	10c00c84 	addi	r3,r2,50
    85f4:	00800074 	movhi	r2,1
    85f8:	10ad2704 	addi	r2,r2,-19300
    85fc:	18c7883a 	add	r3,r3,r3
    8600:	18c7883a 	add	r3,r3,r3
    8604:	10c5883a 	add	r2,r2,r3
    8608:	11000017 	ldw	r4,0(r2)
    860c:	00800074 	movhi	r2,1
    8610:	10ad2704 	addi	r2,r2,-19300
    8614:	e0fffd17 	ldw	r3,-12(fp)
    8618:	18c7883a 	add	r3,r3,r3
    861c:	18c7883a 	add	r3,r3,r3
    8620:	10c5883a 	add	r2,r2,r3
    8624:	11000015 	stw	r4,0(r2)
	            aun_ir_buffer[k]=aun_ir_buffer[k+50];
    8628:	e0bffd17 	ldw	r2,-12(fp)
    862c:	10c00c84 	addi	r3,r2,50
    8630:	00800074 	movhi	r2,1
    8634:	10ac9104 	addi	r2,r2,-19900
    8638:	18c7883a 	add	r3,r3,r3
    863c:	18c7883a 	add	r3,r3,r3
    8640:	10c5883a 	add	r2,r2,r3
    8644:	11000017 	ldw	r4,0(r2)
    8648:	00800074 	movhi	r2,1
    864c:	10ac9104 	addi	r2,r2,-19900
    8650:	e0fffd17 	ldw	r3,-12(fp)
    8654:	18c7883a 	add	r3,r3,r3
    8658:	18c7883a 	add	r3,r3,r3
    865c:	10c5883a 	add	r2,r2,r3
    8660:	11000015 	stw	r4,0(r2)
	            k++;
    8664:	e0bffd17 	ldw	r2,-12(fp)
    8668:	10800044 	addi	r2,r2,1
    866c:	e0bffd15 	stw	r2,-12(fp)
    8670:	003ebe06 	br	816c <_gp+0xffff5520>
    	  	}

    	  	else
    	  	{

	        	aun_red_buffer[k] = IORD_ALTERA_AVALON_PIO_DATA(MAX30102_0_BASE);
    8674:	00800074 	movhi	r2,1
    8678:	10945004 	addi	r2,r2,20800
    867c:	11000037 	ldwio	r4,0(r2)
    8680:	00800074 	movhi	r2,1
    8684:	10ad2704 	addi	r2,r2,-19300
    8688:	e0fffd17 	ldw	r3,-12(fp)
    868c:	18c7883a 	add	r3,r3,r3
    8690:	18c7883a 	add	r3,r3,r3
    8694:	10c5883a 	add	r2,r2,r3
    8698:	11000015 	stw	r4,0(r2)
	        	aun_ir_buffer[k]  = IORD_ALTERA_AVALON_PIO_DATA(MAX30102_1_BASE);
    869c:	00800074 	movhi	r2,1
    86a0:	10944c04 	addi	r2,r2,20784
    86a4:	10800037 	ldwio	r2,0(r2)
    86a8:	1009883a 	mov	r4,r2
    86ac:	00800074 	movhi	r2,1
    86b0:	10ac9104 	addi	r2,r2,-19900
    86b4:	e0fffd17 	ldw	r3,-12(fp)
    86b8:	18c7883a 	add	r3,r3,r3
    86bc:	18c7883a 	add	r3,r3,r3
    86c0:	10c5883a 	add	r2,r2,r3
    86c4:	11000015 	stw	r4,0(r2)
	        	if((n_heart_rate==-999))
    86c8:	d0a04417 	ldw	r2,-32496(gp)
    86cc:	10bf0658 	cmpnei	r2,r2,-999
    86d0:	10000d1e 	bne	r2,zero,8708 <main+0x6ac>
	        	{
	        		IOWR_ALTERA_AVALON_PIO_DATA(HEART_RATE_HUN_BASE,0x0);
    86d4:	0007883a 	mov	r3,zero
    86d8:	00800074 	movhi	r2,1
    86dc:	10944404 	addi	r2,r2,20752
    86e0:	10c00035 	stwio	r3,0(r2)
	        		IOWR_ALTERA_AVALON_PIO_DATA(HEART_RATE_TEN_BASE,0x0);
    86e4:	0007883a 	mov	r3,zero
    86e8:	00800074 	movhi	r2,1
    86ec:	10943c04 	addi	r2,r2,20720
    86f0:	10c00035 	stwio	r3,0(r2)
	        		IOWR_ALTERA_AVALON_PIO_DATA(HEART_RATE_ONE_BASE,0x0);
    86f4:	0007883a 	mov	r3,zero
    86f8:	00800074 	movhi	r2,1
    86fc:	10944004 	addi	r2,r2,20736
    8700:	10c00035 	stwio	r3,0(r2)
    8704:	00005306 	br	8854 <main+0x7f8>
	        	}
	        	else if(n_heart_rate==0)
    8708:	d0a04417 	ldw	r2,-32496(gp)
    870c:	10000d1e 	bne	r2,zero,8744 <main+0x6e8>
	        	{
	        		IOWR_ALTERA_AVALON_PIO_DATA(HEART_RATE_HUN_BASE,0x0);
    8710:	0007883a 	mov	r3,zero
    8714:	00800074 	movhi	r2,1
    8718:	10944404 	addi	r2,r2,20752
    871c:	10c00035 	stwio	r3,0(r2)
	        		IOWR_ALTERA_AVALON_PIO_DATA(HEART_RATE_TEN_BASE,0x0);
    8720:	0007883a 	mov	r3,zero
    8724:	00800074 	movhi	r2,1
    8728:	10943c04 	addi	r2,r2,20720
    872c:	10c00035 	stwio	r3,0(r2)
	        		IOWR_ALTERA_AVALON_PIO_DATA(HEART_RATE_ONE_BASE,0x0);
    8730:	0007883a 	mov	r3,zero
    8734:	00800074 	movhi	r2,1
    8738:	10944004 	addi	r2,r2,20736
    873c:	10c00035 	stwio	r3,0(r2)
    8740:	00004406 	br	8854 <main+0x7f8>
	        	}
	        	else if(n_heart_rate>200)
    8744:	d0a04417 	ldw	r2,-32496(gp)
    8748:	10803250 	cmplti	r2,r2,201
    874c:	10000d1e 	bne	r2,zero,8784 <main+0x728>
	        	{
	        		IOWR_ALTERA_AVALON_PIO_DATA(HEART_RATE_HUN_BASE,0x0);
    8750:	0007883a 	mov	r3,zero
    8754:	00800074 	movhi	r2,1
    8758:	10944404 	addi	r2,r2,20752
    875c:	10c00035 	stwio	r3,0(r2)
	        		IOWR_ALTERA_AVALON_PIO_DATA(HEART_RATE_TEN_BASE,0x0);
    8760:	0007883a 	mov	r3,zero
    8764:	00800074 	movhi	r2,1
    8768:	10943c04 	addi	r2,r2,20720
    876c:	10c00035 	stwio	r3,0(r2)
	        		IOWR_ALTERA_AVALON_PIO_DATA(HEART_RATE_ONE_BASE,0x0);
    8770:	0007883a 	mov	r3,zero
    8774:	00800074 	movhi	r2,1
    8778:	10944004 	addi	r2,r2,20736
    877c:	10c00035 	stwio	r3,0(r2)
    8780:	00003406 	br	8854 <main+0x7f8>
	        	}
	        	else
	        	{
	        		h=n_heart_rate/2+(rand()%10);
    8784:	d0a04417 	ldw	r2,-32496(gp)
    8788:	1006d7fa 	srli	r3,r2,31
    878c:	1885883a 	add	r2,r3,r2
    8790:	1005d07a 	srai	r2,r2,1
    8794:	1021883a 	mov	r16,r2
    8798:	000a5380 	call	a538 <rand>
    879c:	01400284 	movi	r5,10
    87a0:	1009883a 	mov	r4,r2
    87a4:	00094800 	call	9480 <__modsi3>
    87a8:	8085883a 	add	r2,r16,r2
    87ac:	d0a04715 	stw	r2,-32484(gp)
	        		d=h/100;    //百位
    87b0:	d0a04717 	ldw	r2,-32484(gp)
    87b4:	01401904 	movi	r5,100
    87b8:	1009883a 	mov	r4,r2
    87bc:	00093fc0 	call	93fc <__divsi3>
    87c0:	d0a04615 	stw	r2,-32488(gp)
	        		e=(h-d*100)/10;//十位
    87c4:	d0a04617 	ldw	r2,-32488(gp)
    87c8:	017fe704 	movi	r5,-100
    87cc:	1009883a 	mov	r4,r2
    87d0:	00095b00 	call	95b0 <__mulsi3>
    87d4:	1007883a 	mov	r3,r2
    87d8:	d0a04717 	ldw	r2,-32484(gp)
    87dc:	1885883a 	add	r2,r3,r2
    87e0:	01400284 	movi	r5,10
    87e4:	1009883a 	mov	r4,r2
    87e8:	00093fc0 	call	93fc <__divsi3>
    87ec:	d0a04915 	stw	r2,-32476(gp)
	        		f=h-d*100-e*10;//个位
    87f0:	d0a04617 	ldw	r2,-32488(gp)
    87f4:	017fe704 	movi	r5,-100
    87f8:	1009883a 	mov	r4,r2
    87fc:	00095b00 	call	95b0 <__mulsi3>
    8800:	1007883a 	mov	r3,r2
    8804:	d0a04717 	ldw	r2,-32484(gp)
    8808:	18a1883a 	add	r16,r3,r2
    880c:	d0a04917 	ldw	r2,-32476(gp)
    8810:	017ffd84 	movi	r5,-10
    8814:	1009883a 	mov	r4,r2
    8818:	00095b00 	call	95b0 <__mulsi3>
    881c:	8085883a 	add	r2,r16,r2
    8820:	d0a04115 	stw	r2,-32508(gp)
	        		IOWR_ALTERA_AVALON_PIO_DATA(HEART_RATE_HUN_BASE,d);
    8824:	d0e04617 	ldw	r3,-32488(gp)
    8828:	00800074 	movhi	r2,1
    882c:	10944404 	addi	r2,r2,20752
    8830:	10c00035 	stwio	r3,0(r2)
	        		IOWR_ALTERA_AVALON_PIO_DATA(HEART_RATE_TEN_BASE,e);
    8834:	d0e04917 	ldw	r3,-32476(gp)
    8838:	00800074 	movhi	r2,1
    883c:	10943c04 	addi	r2,r2,20720
    8840:	10c00035 	stwio	r3,0(r2)
	        		IOWR_ALTERA_AVALON_PIO_DATA(HEART_RATE_ONE_BASE,f);
    8844:	d0e04117 	ldw	r3,-32508(gp)
    8848:	00800074 	movhi	r2,1
    884c:	10944004 	addi	r2,r2,20736
    8850:	10c00035 	stwio	r3,0(r2)
	        	}

        		k++;
    8854:	e0bffd17 	ldw	r2,-12(fp)
    8858:	10800044 	addi	r2,r2,1
    885c:	e0bffd15 	stw	r2,-12(fp)
    	  	}
      }


  }
    8860:	003e4206 	br	816c <_gp+0xffff5520>

00008864 <maxim_heart_rate_and_oxygen_saturation>:



void maxim_heart_rate_and_oxygen_saturation(alt_u32 *pun_ir_buffer,  alt_32 n_ir_buffer_length, alt_u32 *pun_red_buffer,alt_32 *pn_heart_rate, alt_8  *pch_hr_valid)

{
    8864:	deffe004 	addi	sp,sp,-128
    8868:	dfc01f15 	stw	ra,124(sp)
    886c:	df001e15 	stw	fp,120(sp)
    8870:	df001e04 	addi	fp,sp,120
    8874:	e13ffc15 	stw	r4,-16(fp)
    8878:	e17ffd15 	stw	r5,-12(fp)
    887c:	e1bffe15 	stw	r6,-8(fp)
    8880:	e1ffff15 	stw	r7,-4(fp)
	alt_32 i, s;
	alt_32 n_th1, n_npks;
	alt_32 an_dx_peak_locs[15];
	alt_32 n_peak_interval_sum;
	alt_32 n_denom ;
    un_ir_mean =0;
    8884:	e03fe515 	stw	zero,-108(fp)
    for (k=0 ; k<n_ir_buffer_length ; k++ ) un_ir_mean += pun_ir_buffer[k] ;
    8888:	e03fe615 	stw	zero,-104(fp)
    888c:	00000d06 	br	88c4 <maxim_heart_rate_and_oxygen_saturation+0x60>
    8890:	e0bfe617 	ldw	r2,-104(fp)
    8894:	1085883a 	add	r2,r2,r2
    8898:	1085883a 	add	r2,r2,r2
    889c:	1007883a 	mov	r3,r2
    88a0:	e0bffc17 	ldw	r2,-16(fp)
    88a4:	10c5883a 	add	r2,r2,r3
    88a8:	10800017 	ldw	r2,0(r2)
    88ac:	e0ffe517 	ldw	r3,-108(fp)
    88b0:	1885883a 	add	r2,r3,r2
    88b4:	e0bfe515 	stw	r2,-108(fp)
    88b8:	e0bfe617 	ldw	r2,-104(fp)
    88bc:	10800044 	addi	r2,r2,1
    88c0:	e0bfe615 	stw	r2,-104(fp)
    88c4:	e0ffe617 	ldw	r3,-104(fp)
    88c8:	e0bffd17 	ldw	r2,-12(fp)
    88cc:	18bff016 	blt	r3,r2,8890 <_gp+0xffff5c44>
    un_ir_mean =un_ir_mean/n_ir_buffer_length ;
    88d0:	e0bffd17 	ldw	r2,-12(fp)
    88d4:	100b883a 	mov	r5,r2
    88d8:	e13fe517 	ldw	r4,-108(fp)
    88dc:	00094f40 	call	94f4 <__udivsi3>
    88e0:	e0bfe515 	stw	r2,-108(fp)
    for (k=0 ; k<n_ir_buffer_length ; k++ )  an_x[k] =  pun_ir_buffer[k] - un_ir_mean ;
    88e4:	e03fe615 	stw	zero,-104(fp)
    88e8:	00001406 	br	893c <maxim_heart_rate_and_oxygen_saturation+0xd8>
    88ec:	e0bfe617 	ldw	r2,-104(fp)
    88f0:	1085883a 	add	r2,r2,r2
    88f4:	1085883a 	add	r2,r2,r2
    88f8:	1007883a 	mov	r3,r2
    88fc:	e0bffc17 	ldw	r2,-16(fp)
    8900:	10c5883a 	add	r2,r2,r3
    8904:	10c00017 	ldw	r3,0(r2)
    8908:	e0bfe517 	ldw	r2,-108(fp)
    890c:	1885c83a 	sub	r2,r3,r2
    8910:	1009883a 	mov	r4,r2
    8914:	00800074 	movhi	r2,1
    8918:	10abf604 	addi	r2,r2,-20520
    891c:	e0ffe617 	ldw	r3,-104(fp)
    8920:	18c7883a 	add	r3,r3,r3
    8924:	18c7883a 	add	r3,r3,r3
    8928:	10c5883a 	add	r2,r2,r3
    892c:	11000015 	stw	r4,0(r2)
    8930:	e0bfe617 	ldw	r2,-104(fp)
    8934:	10800044 	addi	r2,r2,1
    8938:	e0bfe615 	stw	r2,-104(fp)
    893c:	e0ffe617 	ldw	r3,-104(fp)
    8940:	e0bffd17 	ldw	r2,-12(fp)
    8944:	18bfe916 	blt	r3,r2,88ec <_gp+0xffff5ca0>
    for(k=0; k< BUFFER_SIZE-MA4_SIZE; k++){
    8948:	e03fe615 	stw	zero,-104(fp)
    894c:	00003206 	br	8a18 <maxim_heart_rate_and_oxygen_saturation+0x1b4>
        n_denom= ( an_x[k]+an_x[k+1]+ an_x[k+2]+ an_x[k+3]);
    8950:	00800074 	movhi	r2,1
    8954:	10abf604 	addi	r2,r2,-20520
    8958:	e0ffe617 	ldw	r3,-104(fp)
    895c:	18c7883a 	add	r3,r3,r3
    8960:	18c7883a 	add	r3,r3,r3
    8964:	10c5883a 	add	r2,r2,r3
    8968:	11000017 	ldw	r4,0(r2)
    896c:	e0bfe617 	ldw	r2,-104(fp)
    8970:	10c00044 	addi	r3,r2,1
    8974:	00800074 	movhi	r2,1
    8978:	10abf604 	addi	r2,r2,-20520
    897c:	18c7883a 	add	r3,r3,r3
    8980:	18c7883a 	add	r3,r3,r3
    8984:	10c5883a 	add	r2,r2,r3
    8988:	10800017 	ldw	r2,0(r2)
    898c:	2089883a 	add	r4,r4,r2
    8990:	e0bfe617 	ldw	r2,-104(fp)
    8994:	10c00084 	addi	r3,r2,2
    8998:	00800074 	movhi	r2,1
    899c:	10abf604 	addi	r2,r2,-20520
    89a0:	18c7883a 	add	r3,r3,r3
    89a4:	18c7883a 	add	r3,r3,r3
    89a8:	10c5883a 	add	r2,r2,r3
    89ac:	10800017 	ldw	r2,0(r2)
    89b0:	2089883a 	add	r4,r4,r2
    89b4:	e0bfe617 	ldw	r2,-104(fp)
    89b8:	10c000c4 	addi	r3,r2,3
    89bc:	00800074 	movhi	r2,1
    89c0:	10abf604 	addi	r2,r2,-20520
    89c4:	18c7883a 	add	r3,r3,r3
    89c8:	18c7883a 	add	r3,r3,r3
    89cc:	10c5883a 	add	r2,r2,r3
    89d0:	10800017 	ldw	r2,0(r2)
    89d4:	2085883a 	add	r2,r4,r2
    89d8:	e0bfeb15 	stw	r2,-84(fp)
        an_x[k]=  n_denom/(alt_32)4;
    89dc:	e0bfeb17 	ldw	r2,-84(fp)
    89e0:	1000010e 	bge	r2,zero,89e8 <maxim_heart_rate_and_oxygen_saturation+0x184>
    89e4:	108000c4 	addi	r2,r2,3
    89e8:	1005d0ba 	srai	r2,r2,2
    89ec:	1009883a 	mov	r4,r2
    89f0:	00800074 	movhi	r2,1
    89f4:	10abf604 	addi	r2,r2,-20520
    89f8:	e0ffe617 	ldw	r3,-104(fp)
    89fc:	18c7883a 	add	r3,r3,r3
    8a00:	18c7883a 	add	r3,r3,r3
    8a04:	10c5883a 	add	r2,r2,r3
    8a08:	11000015 	stw	r4,0(r2)
	alt_32 n_denom ;
    un_ir_mean =0;
    for (k=0 ; k<n_ir_buffer_length ; k++ ) un_ir_mean += pun_ir_buffer[k] ;
    un_ir_mean =un_ir_mean/n_ir_buffer_length ;
    for (k=0 ; k<n_ir_buffer_length ; k++ )  an_x[k] =  pun_ir_buffer[k] - un_ir_mean ;
    for(k=0; k< BUFFER_SIZE-MA4_SIZE; k++){
    8a0c:	e0bfe617 	ldw	r2,-104(fp)
    8a10:	10800044 	addi	r2,r2,1
    8a14:	e0bfe615 	stw	r2,-104(fp)
    8a18:	e0bfe617 	ldw	r2,-104(fp)
    8a1c:	10802490 	cmplti	r2,r2,146
    8a20:	103fcb1e 	bne	r2,zero,8950 <_gp+0xffff5d04>
        n_denom= ( an_x[k]+an_x[k+1]+ an_x[k+2]+ an_x[k+3]);
        an_x[k]=  n_denom/(alt_32)4;
    }
    for( k=0; k<BUFFER_SIZE-MA4_SIZE-1;  k++)
    8a24:	e03fe615 	stw	zero,-104(fp)
    8a28:	00001a06 	br	8a94 <maxim_heart_rate_and_oxygen_saturation+0x230>
        an_dx[k]= (an_x[k+1]- an_x[k]);
    8a2c:	e0bfe617 	ldw	r2,-104(fp)
    8a30:	10c00044 	addi	r3,r2,1
    8a34:	00800074 	movhi	r2,1
    8a38:	10abf604 	addi	r2,r2,-20520
    8a3c:	18c7883a 	add	r3,r3,r3
    8a40:	18c7883a 	add	r3,r3,r3
    8a44:	10c5883a 	add	r2,r2,r3
    8a48:	11000017 	ldw	r4,0(r2)
    8a4c:	00800074 	movhi	r2,1
    8a50:	10abf604 	addi	r2,r2,-20520
    8a54:	e0ffe617 	ldw	r3,-104(fp)
    8a58:	18c7883a 	add	r3,r3,r3
    8a5c:	18c7883a 	add	r3,r3,r3
    8a60:	10c5883a 	add	r2,r2,r3
    8a64:	10800017 	ldw	r2,0(r2)
    8a68:	2089c83a 	sub	r4,r4,r2
    8a6c:	00800074 	movhi	r2,1
    8a70:	10ab6404 	addi	r2,r2,-21104
    8a74:	e0ffe617 	ldw	r3,-104(fp)
    8a78:	18c7883a 	add	r3,r3,r3
    8a7c:	18c7883a 	add	r3,r3,r3
    8a80:	10c5883a 	add	r2,r2,r3
    8a84:	11000015 	stw	r4,0(r2)
    for (k=0 ; k<n_ir_buffer_length ; k++ )  an_x[k] =  pun_ir_buffer[k] - un_ir_mean ;
    for(k=0; k< BUFFER_SIZE-MA4_SIZE; k++){
        n_denom= ( an_x[k]+an_x[k+1]+ an_x[k+2]+ an_x[k+3]);
        an_x[k]=  n_denom/(alt_32)4;
    }
    for( k=0; k<BUFFER_SIZE-MA4_SIZE-1;  k++)
    8a88:	e0bfe617 	ldw	r2,-104(fp)
    8a8c:	10800044 	addi	r2,r2,1
    8a90:	e0bfe615 	stw	r2,-104(fp)
    8a94:	e0bfe617 	ldw	r2,-104(fp)
    8a98:	10802450 	cmplti	r2,r2,145
    8a9c:	103fe31e 	bne	r2,zero,8a2c <_gp+0xffff5de0>
        an_dx[k]= (an_x[k+1]- an_x[k]);
    for(k=0; k< BUFFER_SIZE-MA4_SIZE-2; k++){
    8aa0:	e03fe615 	stw	zero,-104(fp)
    8aa4:	00001e06 	br	8b20 <maxim_heart_rate_and_oxygen_saturation+0x2bc>
        an_dx[k] =  ( an_dx[k]+an_dx[k+1])/2 ;
    8aa8:	00800074 	movhi	r2,1
    8aac:	10ab6404 	addi	r2,r2,-21104
    8ab0:	e0ffe617 	ldw	r3,-104(fp)
    8ab4:	18c7883a 	add	r3,r3,r3
    8ab8:	18c7883a 	add	r3,r3,r3
    8abc:	10c5883a 	add	r2,r2,r3
    8ac0:	11000017 	ldw	r4,0(r2)
    8ac4:	e0bfe617 	ldw	r2,-104(fp)
    8ac8:	10c00044 	addi	r3,r2,1
    8acc:	00800074 	movhi	r2,1
    8ad0:	10ab6404 	addi	r2,r2,-21104
    8ad4:	18c7883a 	add	r3,r3,r3
    8ad8:	18c7883a 	add	r3,r3,r3
    8adc:	10c5883a 	add	r2,r2,r3
    8ae0:	10800017 	ldw	r2,0(r2)
    8ae4:	2085883a 	add	r2,r4,r2
    8ae8:	1006d7fa 	srli	r3,r2,31
    8aec:	1885883a 	add	r2,r3,r2
    8af0:	1005d07a 	srai	r2,r2,1
    8af4:	1009883a 	mov	r4,r2
    8af8:	00800074 	movhi	r2,1
    8afc:	10ab6404 	addi	r2,r2,-21104
    8b00:	e0ffe617 	ldw	r3,-104(fp)
    8b04:	18c7883a 	add	r3,r3,r3
    8b08:	18c7883a 	add	r3,r3,r3
    8b0c:	10c5883a 	add	r2,r2,r3
    8b10:	11000015 	stw	r4,0(r2)
        n_denom= ( an_x[k]+an_x[k+1]+ an_x[k+2]+ an_x[k+3]);
        an_x[k]=  n_denom/(alt_32)4;
    }
    for( k=0; k<BUFFER_SIZE-MA4_SIZE-1;  k++)
        an_dx[k]= (an_x[k+1]- an_x[k]);
    for(k=0; k< BUFFER_SIZE-MA4_SIZE-2; k++){
    8b14:	e0bfe617 	ldw	r2,-104(fp)
    8b18:	10800044 	addi	r2,r2,1
    8b1c:	e0bfe615 	stw	r2,-104(fp)
    8b20:	e0bfe617 	ldw	r2,-104(fp)
    8b24:	10802410 	cmplti	r2,r2,144
    8b28:	103fdf1e 	bne	r2,zero,8aa8 <_gp+0xffff5e5c>
        an_dx[k] =  ( an_dx[k]+an_dx[k+1])/2 ;
    }
    for ( i=0 ; i<BUFFER_SIZE-HAMMING_SIZE-MA4_SIZE-2 ;i++){
    8b2c:	e03fe715 	stw	zero,-100(fp)
    8b30:	00003006 	br	8bf4 <maxim_heart_rate_and_oxygen_saturation+0x390>
        s= 0;
    8b34:	e03fe815 	stw	zero,-96(fp)
        for( k=i; k<i+ HAMMING_SIZE ;k++){
    8b38:	e0bfe717 	ldw	r2,-100(fp)
    8b3c:	e0bfe615 	stw	r2,-104(fp)
    8b40:	00001906 	br	8ba8 <maxim_heart_rate_and_oxygen_saturation+0x344>
            s -= an_dx[k] *auw_hamm[k-i] ;
    8b44:	00800074 	movhi	r2,1
    8b48:	10ab6404 	addi	r2,r2,-21104
    8b4c:	e0ffe617 	ldw	r3,-104(fp)
    8b50:	18c7883a 	add	r3,r3,r3
    8b54:	18c7883a 	add	r3,r3,r3
    8b58:	10c5883a 	add	r2,r2,r3
    8b5c:	11000017 	ldw	r4,0(r2)
    8b60:	e0ffe617 	ldw	r3,-104(fp)
    8b64:	e0bfe717 	ldw	r2,-100(fp)
    8b68:	1887c83a 	sub	r3,r3,r2
    8b6c:	00800074 	movhi	r2,1
    8b70:	10aa8b04 	addi	r2,r2,-21972
    8b74:	18c7883a 	add	r3,r3,r3
    8b78:	10c5883a 	add	r2,r2,r3
    8b7c:	1080000b 	ldhu	r2,0(r2)
    8b80:	10bfffcc 	andi	r2,r2,65535
    8b84:	100b883a 	mov	r5,r2
    8b88:	00095b00 	call	95b0 <__mulsi3>
    8b8c:	1007883a 	mov	r3,r2
    8b90:	e0bfe817 	ldw	r2,-96(fp)
    8b94:	10c5c83a 	sub	r2,r2,r3
    8b98:	e0bfe815 	stw	r2,-96(fp)
    for(k=0; k< BUFFER_SIZE-MA4_SIZE-2; k++){
        an_dx[k] =  ( an_dx[k]+an_dx[k+1])/2 ;
    }
    for ( i=0 ; i<BUFFER_SIZE-HAMMING_SIZE-MA4_SIZE-2 ;i++){
        s= 0;
        for( k=i; k<i+ HAMMING_SIZE ;k++){
    8b9c:	e0bfe617 	ldw	r2,-104(fp)
    8ba0:	10800044 	addi	r2,r2,1
    8ba4:	e0bfe615 	stw	r2,-104(fp)
    8ba8:	e0bfe717 	ldw	r2,-100(fp)
    8bac:	10800144 	addi	r2,r2,5
    8bb0:	e0ffe617 	ldw	r3,-104(fp)
    8bb4:	18bfe316 	blt	r3,r2,8b44 <_gp+0xffff5ef8>
            s -= an_dx[k] *auw_hamm[k-i] ;
                     }
        an_dx[i]= s/ (alt_32)1146;
    8bb8:	e0bfe817 	ldw	r2,-96(fp)
    8bbc:	01411e84 	movi	r5,1146
    8bc0:	1009883a 	mov	r4,r2
    8bc4:	00093fc0 	call	93fc <__divsi3>
    8bc8:	1009883a 	mov	r4,r2
    8bcc:	00800074 	movhi	r2,1
    8bd0:	10ab6404 	addi	r2,r2,-21104
    8bd4:	e0ffe717 	ldw	r3,-100(fp)
    8bd8:	18c7883a 	add	r3,r3,r3
    8bdc:	18c7883a 	add	r3,r3,r3
    8be0:	10c5883a 	add	r2,r2,r3
    8be4:	11000015 	stw	r4,0(r2)
    for( k=0; k<BUFFER_SIZE-MA4_SIZE-1;  k++)
        an_dx[k]= (an_x[k+1]- an_x[k]);
    for(k=0; k< BUFFER_SIZE-MA4_SIZE-2; k++){
        an_dx[k] =  ( an_dx[k]+an_dx[k+1])/2 ;
    }
    for ( i=0 ; i<BUFFER_SIZE-HAMMING_SIZE-MA4_SIZE-2 ;i++){
    8be8:	e0bfe717 	ldw	r2,-100(fp)
    8bec:	10800044 	addi	r2,r2,1
    8bf0:	e0bfe715 	stw	r2,-100(fp)
    8bf4:	e0bfe717 	ldw	r2,-100(fp)
    8bf8:	108022d0 	cmplti	r2,r2,139
    8bfc:	103fcd1e 	bne	r2,zero,8b34 <_gp+0xffff5ee8>
        for( k=i; k<i+ HAMMING_SIZE ;k++){
            s -= an_dx[k] *auw_hamm[k-i] ;
                     }
        an_dx[i]= s/ (alt_32)1146;
    }
    n_th1=0;
    8c00:	e03fe915 	stw	zero,-92(fp)
    for ( k=0 ; k<BUFFER_SIZE-HAMMING_SIZE ;k++){
    8c04:	e03fe615 	stw	zero,-104(fp)
    8c08:	00001006 	br	8c4c <maxim_heart_rate_and_oxygen_saturation+0x3e8>
        n_th1 += ((an_dx[k]>0)? an_dx[k] : ((alt_32)0-an_dx[k])) ;
    8c0c:	00800074 	movhi	r2,1
    8c10:	10ab6404 	addi	r2,r2,-21104
    8c14:	e0ffe617 	ldw	r3,-104(fp)
    8c18:	18c7883a 	add	r3,r3,r3
    8c1c:	18c7883a 	add	r3,r3,r3
    8c20:	10c5883a 	add	r2,r2,r3
    8c24:	10800017 	ldw	r2,0(r2)
    8c28:	1000010e 	bge	r2,zero,8c30 <maxim_heart_rate_and_oxygen_saturation+0x3cc>
    8c2c:	0085c83a 	sub	r2,zero,r2
    8c30:	1007883a 	mov	r3,r2
    8c34:	e0bfe917 	ldw	r2,-92(fp)
    8c38:	10c5883a 	add	r2,r2,r3
    8c3c:	e0bfe915 	stw	r2,-92(fp)
            s -= an_dx[k] *auw_hamm[k-i] ;
                     }
        an_dx[i]= s/ (alt_32)1146;
    }
    n_th1=0;
    for ( k=0 ; k<BUFFER_SIZE-HAMMING_SIZE ;k++){
    8c40:	e0bfe617 	ldw	r2,-104(fp)
    8c44:	10800044 	addi	r2,r2,1
    8c48:	e0bfe615 	stw	r2,-104(fp)
    8c4c:	e0bfe617 	ldw	r2,-104(fp)
    8c50:	10802450 	cmplti	r2,r2,145
    8c54:	103fed1e 	bne	r2,zero,8c0c <_gp+0xffff5fc0>
        n_th1 += ((an_dx[k]>0)? an_dx[k] : ((alt_32)0-an_dx[k])) ;
    }
    n_th1= n_th1/ ( BUFFER_SIZE-HAMMING_SIZE);
    8c58:	e0bfe917 	ldw	r2,-92(fp)
    8c5c:	01402444 	movi	r5,145
    8c60:	1009883a 	mov	r4,r2
    8c64:	00093fc0 	call	93fc <__divsi3>
    8c68:	e0bfe915 	stw	r2,-92(fp)
    maxim_find_peaks( an_dx_peak_locs, &n_npks, an_dx, BUFFER_SIZE-HAMMING_SIZE, n_th1, 8, 5 );
    8c6c:	e13fec04 	addi	r4,fp,-80
    8c70:	e0ffed04 	addi	r3,fp,-76
    8c74:	00800144 	movi	r2,5
    8c78:	d8800215 	stw	r2,8(sp)
    8c7c:	00800204 	movi	r2,8
    8c80:	d8800115 	stw	r2,4(sp)
    8c84:	e0bfe917 	ldw	r2,-92(fp)
    8c88:	d8800015 	stw	r2,0(sp)
    8c8c:	01c02444 	movi	r7,145
    8c90:	01800074 	movhi	r6,1
    8c94:	31ab6404 	addi	r6,r6,-21104
    8c98:	200b883a 	mov	r5,r4
    8c9c:	1809883a 	mov	r4,r3
    8ca0:	0008d900 	call	8d90 <maxim_find_peaks>

    n_peak_interval_sum =0;
    8ca4:	e03fea15 	stw	zero,-88(fp)
    if (n_npks>=2){
    8ca8:	e0bfec17 	ldw	r2,-80(fp)
    8cac:	10800090 	cmplti	r2,r2,2
    8cb0:	10002c1e 	bne	r2,zero,8d64 <maxim_heart_rate_and_oxygen_saturation+0x500>
        for (k=1; k<n_npks; k++)
    8cb4:	00800044 	movi	r2,1
    8cb8:	e0bfe615 	stw	r2,-104(fp)
    8cbc:	00001606 	br	8d18 <maxim_heart_rate_and_oxygen_saturation+0x4b4>
            n_peak_interval_sum += (an_dx_peak_locs[k]-an_dx_peak_locs[k -1]);
    8cc0:	e0bfe617 	ldw	r2,-104(fp)
    8cc4:	1085883a 	add	r2,r2,r2
    8cc8:	1085883a 	add	r2,r2,r2
    8ccc:	e0ffe504 	addi	r3,fp,-108
    8cd0:	1885883a 	add	r2,r3,r2
    8cd4:	10800804 	addi	r2,r2,32
    8cd8:	10c00017 	ldw	r3,0(r2)
    8cdc:	e0bfe617 	ldw	r2,-104(fp)
    8ce0:	10bfffc4 	addi	r2,r2,-1
    8ce4:	1085883a 	add	r2,r2,r2
    8ce8:	1085883a 	add	r2,r2,r2
    8cec:	e13fe504 	addi	r4,fp,-108
    8cf0:	2085883a 	add	r2,r4,r2
    8cf4:	10800804 	addi	r2,r2,32
    8cf8:	10800017 	ldw	r2,0(r2)
    8cfc:	1885c83a 	sub	r2,r3,r2
    8d00:	e0ffea17 	ldw	r3,-88(fp)
    8d04:	1885883a 	add	r2,r3,r2
    8d08:	e0bfea15 	stw	r2,-88(fp)
    n_th1= n_th1/ ( BUFFER_SIZE-HAMMING_SIZE);
    maxim_find_peaks( an_dx_peak_locs, &n_npks, an_dx, BUFFER_SIZE-HAMMING_SIZE, n_th1, 8, 5 );

    n_peak_interval_sum =0;
    if (n_npks>=2){
        for (k=1; k<n_npks; k++)
    8d0c:	e0bfe617 	ldw	r2,-104(fp)
    8d10:	10800044 	addi	r2,r2,1
    8d14:	e0bfe615 	stw	r2,-104(fp)
    8d18:	e0bfec17 	ldw	r2,-80(fp)
    8d1c:	e0ffe617 	ldw	r3,-104(fp)
    8d20:	18bfe716 	blt	r3,r2,8cc0 <_gp+0xffff6074>
            n_peak_interval_sum += (an_dx_peak_locs[k]-an_dx_peak_locs[k -1]);
        n_peak_interval_sum=n_peak_interval_sum/(n_npks-1);
    8d24:	e0bfec17 	ldw	r2,-80(fp)
    8d28:	10bfffc4 	addi	r2,r2,-1
    8d2c:	100b883a 	mov	r5,r2
    8d30:	e13fea17 	ldw	r4,-88(fp)
    8d34:	00093fc0 	call	93fc <__divsi3>
    8d38:	e0bfea15 	stw	r2,-88(fp)
        *pn_heart_rate=(alt_32)(6000/n_peak_interval_sum);
    8d3c:	e17fea17 	ldw	r5,-88(fp)
    8d40:	0105dc04 	movi	r4,6000
    8d44:	00093fc0 	call	93fc <__divsi3>
    8d48:	1007883a 	mov	r3,r2
    8d4c:	e0bfff17 	ldw	r2,-4(fp)
    8d50:	10c00015 	stw	r3,0(r2)
        *pch_hr_valid  = 1;
    8d54:	e0800217 	ldw	r2,8(fp)
    8d58:	00c00044 	movi	r3,1
    8d5c:	10c00005 	stb	r3,0(r2)
    }
    else  {
        *pn_heart_rate = -999;
        *pch_hr_valid  = 0;
    }
}
    8d60:	00000506 	br	8d78 <maxim_heart_rate_and_oxygen_saturation+0x514>
        n_peak_interval_sum=n_peak_interval_sum/(n_npks-1);
        *pn_heart_rate=(alt_32)(6000/n_peak_interval_sum);
        *pch_hr_valid  = 1;
    }
    else  {
        *pn_heart_rate = -999;
    8d64:	e0bfff17 	ldw	r2,-4(fp)
    8d68:	00ff0644 	movi	r3,-999
    8d6c:	10c00015 	stw	r3,0(r2)
        *pch_hr_valid  = 0;
    8d70:	e0800217 	ldw	r2,8(fp)
    8d74:	10000005 	stb	zero,0(r2)
    }
}
    8d78:	0001883a 	nop
    8d7c:	e037883a 	mov	sp,fp
    8d80:	dfc00117 	ldw	ra,4(sp)
    8d84:	df000017 	ldw	fp,0(sp)
    8d88:	dec00204 	addi	sp,sp,8
    8d8c:	f800283a 	ret

00008d90 <maxim_find_peaks>:

void maxim_find_peaks(alt_32 *pn_locs, alt_32 *pn_npks, alt_32 *pn_x, alt_32 n_size, alt_32 n_min_height, alt_32 n_min_distance, alt_32 n_max_num)
{
    8d90:	defff904 	addi	sp,sp,-28
    8d94:	dfc00615 	stw	ra,24(sp)
    8d98:	df000515 	stw	fp,20(sp)
    8d9c:	df000504 	addi	fp,sp,20
    8da0:	e13ffc15 	stw	r4,-16(fp)
    8da4:	e17ffd15 	stw	r5,-12(fp)
    8da8:	e1bffe15 	stw	r6,-8(fp)
    8dac:	e1ffff15 	stw	r7,-4(fp)
    maxim_peaks_above_min_height( pn_locs, pn_npks, pn_x, n_size, n_min_height );
    8db0:	e0800217 	ldw	r2,8(fp)
    8db4:	d8800015 	stw	r2,0(sp)
    8db8:	e1ffff17 	ldw	r7,-4(fp)
    8dbc:	e1bffe17 	ldw	r6,-8(fp)
    8dc0:	e17ffd17 	ldw	r5,-12(fp)
    8dc4:	e13ffc17 	ldw	r4,-16(fp)
    8dc8:	0008e140 	call	8e14 <maxim_peaks_above_min_height>
    maxim_remove_close_peaks( pn_locs, pn_npks, pn_x, n_min_distance );
    8dcc:	e1c00317 	ldw	r7,12(fp)
    8dd0:	e1bffe17 	ldw	r6,-8(fp)
    8dd4:	e17ffd17 	ldw	r5,-12(fp)
    8dd8:	e13ffc17 	ldw	r4,-16(fp)
    8ddc:	00090000 	call	9000 <maxim_remove_close_peaks>
    *pn_npks = min( *pn_npks, n_max_num );
    8de0:	e0bffd17 	ldw	r2,-12(fp)
    8de4:	10800017 	ldw	r2,0(r2)
    8de8:	e0c00417 	ldw	r3,16(fp)
    8dec:	1880010e 	bge	r3,r2,8df4 <maxim_find_peaks+0x64>
    8df0:	1805883a 	mov	r2,r3
    8df4:	e0fffd17 	ldw	r3,-12(fp)
    8df8:	18800015 	stw	r2,0(r3)
}
    8dfc:	0001883a 	nop
    8e00:	e037883a 	mov	sp,fp
    8e04:	dfc00117 	ldw	ra,4(sp)
    8e08:	df000017 	ldw	fp,0(sp)
    8e0c:	dec00204 	addi	sp,sp,8
    8e10:	f800283a 	ret

00008e14 <maxim_peaks_above_min_height>:
void maxim_peaks_above_min_height(alt_32 *pn_locs, alt_32 *pn_npks, alt_32  *pn_x, alt_32 n_size, alt_32 n_min_height)
{
    8e14:	defff904 	addi	sp,sp,-28
    8e18:	df000615 	stw	fp,24(sp)
    8e1c:	df000604 	addi	fp,sp,24
    8e20:	e13ffc15 	stw	r4,-16(fp)
    8e24:	e17ffd15 	stw	r5,-12(fp)
    8e28:	e1bffe15 	stw	r6,-8(fp)
    8e2c:	e1ffff15 	stw	r7,-4(fp)
	alt_32 i = 1, n_width;
    8e30:	00800044 	movi	r2,1
    8e34:	e0bffa15 	stw	r2,-24(fp)
    *pn_npks = 0;
    8e38:	e0bffd17 	ldw	r2,-12(fp)
    8e3c:	10000015 	stw	zero,0(r2)

    while (i < n_size-1){
    8e40:	00006606 	br	8fdc <maxim_peaks_above_min_height+0x1c8>
        if (pn_x[i] > n_min_height && pn_x[i] > pn_x[i-1]){
    8e44:	e0bffa17 	ldw	r2,-24(fp)
    8e48:	1085883a 	add	r2,r2,r2
    8e4c:	1085883a 	add	r2,r2,r2
    8e50:	1007883a 	mov	r3,r2
    8e54:	e0bffe17 	ldw	r2,-8(fp)
    8e58:	10c5883a 	add	r2,r2,r3
    8e5c:	10800017 	ldw	r2,0(r2)
    8e60:	e0c00117 	ldw	r3,4(fp)
    8e64:	18805a0e 	bge	r3,r2,8fd0 <maxim_peaks_above_min_height+0x1bc>
    8e68:	e0bffa17 	ldw	r2,-24(fp)
    8e6c:	1085883a 	add	r2,r2,r2
    8e70:	1085883a 	add	r2,r2,r2
    8e74:	1007883a 	mov	r3,r2
    8e78:	e0bffe17 	ldw	r2,-8(fp)
    8e7c:	10c5883a 	add	r2,r2,r3
    8e80:	10c00017 	ldw	r3,0(r2)
    8e84:	e13ffa17 	ldw	r4,-24(fp)
    8e88:	00900034 	movhi	r2,16384
    8e8c:	10bfffc4 	addi	r2,r2,-1
    8e90:	2085883a 	add	r2,r4,r2
    8e94:	1085883a 	add	r2,r2,r2
    8e98:	1085883a 	add	r2,r2,r2
    8e9c:	1009883a 	mov	r4,r2
    8ea0:	e0bffe17 	ldw	r2,-8(fp)
    8ea4:	1105883a 	add	r2,r2,r4
    8ea8:	10800017 	ldw	r2,0(r2)
    8eac:	10c0480e 	bge	r2,r3,8fd0 <maxim_peaks_above_min_height+0x1bc>
            n_width = 1;
    8eb0:	00800044 	movi	r2,1
    8eb4:	e0bffb15 	stw	r2,-20(fp)
            while (i+n_width < n_size && pn_x[i] == pn_x[i+n_width])
    8eb8:	00000306 	br	8ec8 <maxim_peaks_above_min_height+0xb4>
                n_width++;
    8ebc:	e0bffb17 	ldw	r2,-20(fp)
    8ec0:	10800044 	addi	r2,r2,1
    8ec4:	e0bffb15 	stw	r2,-20(fp)
    *pn_npks = 0;

    while (i < n_size-1){
        if (pn_x[i] > n_min_height && pn_x[i] > pn_x[i-1]){
            n_width = 1;
            while (i+n_width < n_size && pn_x[i] == pn_x[i+n_width])
    8ec8:	e0fffa17 	ldw	r3,-24(fp)
    8ecc:	e0bffb17 	ldw	r2,-20(fp)
    8ed0:	1887883a 	add	r3,r3,r2
    8ed4:	e0bfff17 	ldw	r2,-4(fp)
    8ed8:	1880110e 	bge	r3,r2,8f20 <maxim_peaks_above_min_height+0x10c>
    8edc:	e0bffa17 	ldw	r2,-24(fp)
    8ee0:	1085883a 	add	r2,r2,r2
    8ee4:	1085883a 	add	r2,r2,r2
    8ee8:	1007883a 	mov	r3,r2
    8eec:	e0bffe17 	ldw	r2,-8(fp)
    8ef0:	10c5883a 	add	r2,r2,r3
    8ef4:	10c00017 	ldw	r3,0(r2)
    8ef8:	e13ffa17 	ldw	r4,-24(fp)
    8efc:	e0bffb17 	ldw	r2,-20(fp)
    8f00:	2085883a 	add	r2,r4,r2
    8f04:	1085883a 	add	r2,r2,r2
    8f08:	1085883a 	add	r2,r2,r2
    8f0c:	1009883a 	mov	r4,r2
    8f10:	e0bffe17 	ldw	r2,-8(fp)
    8f14:	1105883a 	add	r2,r2,r4
    8f18:	10800017 	ldw	r2,0(r2)
    8f1c:	18bfe726 	beq	r3,r2,8ebc <_gp+0xffff6270>
                n_width++;
            if (pn_x[i] > pn_x[i+n_width] && (*pn_npks) < 15 ){
    8f20:	e0bffa17 	ldw	r2,-24(fp)
    8f24:	1085883a 	add	r2,r2,r2
    8f28:	1085883a 	add	r2,r2,r2
    8f2c:	1007883a 	mov	r3,r2
    8f30:	e0bffe17 	ldw	r2,-8(fp)
    8f34:	10c5883a 	add	r2,r2,r3
    8f38:	10c00017 	ldw	r3,0(r2)
    8f3c:	e13ffa17 	ldw	r4,-24(fp)
    8f40:	e0bffb17 	ldw	r2,-20(fp)
    8f44:	2085883a 	add	r2,r4,r2
    8f48:	1085883a 	add	r2,r2,r2
    8f4c:	1085883a 	add	r2,r2,r2
    8f50:	1009883a 	mov	r4,r2
    8f54:	e0bffe17 	ldw	r2,-8(fp)
    8f58:	1105883a 	add	r2,r2,r4
    8f5c:	10800017 	ldw	r2,0(r2)
    8f60:	10c0160e 	bge	r2,r3,8fbc <maxim_peaks_above_min_height+0x1a8>
    8f64:	e0bffd17 	ldw	r2,-12(fp)
    8f68:	10800017 	ldw	r2,0(r2)
    8f6c:	108003c8 	cmpgei	r2,r2,15
    8f70:	1000121e 	bne	r2,zero,8fbc <maxim_peaks_above_min_height+0x1a8>
                pn_locs[(*pn_npks)++] = i;
    8f74:	e0bffd17 	ldw	r2,-12(fp)
    8f78:	10800017 	ldw	r2,0(r2)
    8f7c:	11000044 	addi	r4,r2,1
    8f80:	e0fffd17 	ldw	r3,-12(fp)
    8f84:	19000015 	stw	r4,0(r3)
    8f88:	1085883a 	add	r2,r2,r2
    8f8c:	1085883a 	add	r2,r2,r2
    8f90:	1007883a 	mov	r3,r2
    8f94:	e0bffc17 	ldw	r2,-16(fp)
    8f98:	10c5883a 	add	r2,r2,r3
    8f9c:	e0fffa17 	ldw	r3,-24(fp)
    8fa0:	10c00015 	stw	r3,0(r2)
                i += n_width+1;
    8fa4:	e0bffb17 	ldw	r2,-20(fp)
    8fa8:	10800044 	addi	r2,r2,1
    8fac:	e0fffa17 	ldw	r3,-24(fp)
    8fb0:	1885883a 	add	r2,r3,r2
    8fb4:	e0bffa15 	stw	r2,-24(fp)
    8fb8:	00000406 	br	8fcc <maxim_peaks_above_min_height+0x1b8>
            }
            else
                i += n_width;
    8fbc:	e0fffa17 	ldw	r3,-24(fp)
    8fc0:	e0bffb17 	ldw	r2,-20(fp)
    8fc4:	1885883a 	add	r2,r3,r2
    8fc8:	e0bffa15 	stw	r2,-24(fp)
    while (i < n_size-1){
        if (pn_x[i] > n_min_height && pn_x[i] > pn_x[i-1]){
            n_width = 1;
            while (i+n_width < n_size && pn_x[i] == pn_x[i+n_width])
                n_width++;
            if (pn_x[i] > pn_x[i+n_width] && (*pn_npks) < 15 ){
    8fcc:	00000306 	br	8fdc <maxim_peaks_above_min_height+0x1c8>
            }
            else
                i += n_width;
        }
        else
            i++;
    8fd0:	e0bffa17 	ldw	r2,-24(fp)
    8fd4:	10800044 	addi	r2,r2,1
    8fd8:	e0bffa15 	stw	r2,-24(fp)
void maxim_peaks_above_min_height(alt_32 *pn_locs, alt_32 *pn_npks, alt_32  *pn_x, alt_32 n_size, alt_32 n_min_height)
{
	alt_32 i = 1, n_width;
    *pn_npks = 0;

    while (i < n_size-1){
    8fdc:	e0bfff17 	ldw	r2,-4(fp)
    8fe0:	10bfffc4 	addi	r2,r2,-1
    8fe4:	e0fffa17 	ldw	r3,-24(fp)
    8fe8:	18bf9616 	blt	r3,r2,8e44 <_gp+0xffff61f8>
                i += n_width;
        }
        else
            i++;
    }
}
    8fec:	0001883a 	nop
    8ff0:	e037883a 	mov	sp,fp
    8ff4:	df000017 	ldw	fp,0(sp)
    8ff8:	dec00104 	addi	sp,sp,4
    8ffc:	f800283a 	ret

00009000 <maxim_remove_close_peaks>:
void maxim_remove_close_peaks(alt_32 *pn_locs, alt_32 *pn_npks, alt_32 *pn_x, alt_32 n_min_distance)
{
    9000:	defff604 	addi	sp,sp,-40
    9004:	dfc00915 	stw	ra,36(sp)
    9008:	df000815 	stw	fp,32(sp)
    900c:	df000804 	addi	fp,sp,32
    9010:	e13ffc15 	stw	r4,-16(fp)
    9014:	e17ffd15 	stw	r5,-12(fp)
    9018:	e1bffe15 	stw	r6,-8(fp)
    901c:	e1ffff15 	stw	r7,-4(fp)
	alt_32 i, j, n_old_npks, n_dist;
    maxim_sort_indices_descend( pn_x, pn_locs, *pn_npks );
    9020:	e0bffd17 	ldw	r2,-12(fp)
    9024:	10800017 	ldw	r2,0(r2)
    9028:	100d883a 	mov	r6,r2
    902c:	e17ffc17 	ldw	r5,-16(fp)
    9030:	e13ffe17 	ldw	r4,-8(fp)
    9034:	00092a80 	call	92a8 <maxim_sort_indices_descend>
    for ( i = -1; i < *pn_npks; i++ ){
    9038:	00bfffc4 	movi	r2,-1
    903c:	e0bff815 	stw	r2,-32(fp)
    9040:	00004206 	br	914c <maxim_remove_close_peaks+0x14c>
        n_old_npks = *pn_npks;
    9044:	e0bffd17 	ldw	r2,-12(fp)
    9048:	10800017 	ldw	r2,0(r2)
    904c:	e0bffa15 	stw	r2,-24(fp)
        *pn_npks = i+1;
    9050:	e0bff817 	ldw	r2,-32(fp)
    9054:	10c00044 	addi	r3,r2,1
    9058:	e0bffd17 	ldw	r2,-12(fp)
    905c:	10c00015 	stw	r3,0(r2)
        for ( j = i+1; j < n_old_npks; j++ ){
    9060:	e0bff817 	ldw	r2,-32(fp)
    9064:	10800044 	addi	r2,r2,1
    9068:	e0bff915 	stw	r2,-28(fp)
    906c:	00003106 	br	9134 <maxim_remove_close_peaks+0x134>
            n_dist =  pn_locs[j] - ( i == -1 ? -1 : pn_locs[i] ); // lag-zero peak of autocorr is at index -1
    9070:	e0bff917 	ldw	r2,-28(fp)
    9074:	1085883a 	add	r2,r2,r2
    9078:	1085883a 	add	r2,r2,r2
    907c:	1007883a 	mov	r3,r2
    9080:	e0bffc17 	ldw	r2,-16(fp)
    9084:	10c5883a 	add	r2,r2,r3
    9088:	10c00017 	ldw	r3,0(r2)
    908c:	e0bff817 	ldw	r2,-32(fp)
    9090:	10bfffe0 	cmpeqi	r2,r2,-1
    9094:	1000081e 	bne	r2,zero,90b8 <maxim_remove_close_peaks+0xb8>
    9098:	e0bff817 	ldw	r2,-32(fp)
    909c:	1085883a 	add	r2,r2,r2
    90a0:	1085883a 	add	r2,r2,r2
    90a4:	1009883a 	mov	r4,r2
    90a8:	e0bffc17 	ldw	r2,-16(fp)
    90ac:	1105883a 	add	r2,r2,r4
    90b0:	10800017 	ldw	r2,0(r2)
    90b4:	00000106 	br	90bc <maxim_remove_close_peaks+0xbc>
    90b8:	00bfffc4 	movi	r2,-1
    90bc:	1885c83a 	sub	r2,r3,r2
    90c0:	e0bffb15 	stw	r2,-20(fp)
            if ( n_dist > n_min_distance || n_dist < -n_min_distance )
    90c4:	e0bffb17 	ldw	r2,-20(fp)
    90c8:	e0ffff17 	ldw	r3,-4(fp)
    90cc:	18800416 	blt	r3,r2,90e0 <maxim_remove_close_peaks+0xe0>
    90d0:	e0bfff17 	ldw	r2,-4(fp)
    90d4:	0085c83a 	sub	r2,zero,r2
    90d8:	e0fffb17 	ldw	r3,-20(fp)
    90dc:	1880120e 	bge	r3,r2,9128 <maxim_remove_close_peaks+0x128>
                pn_locs[(*pn_npks)++] = pn_locs[j];
    90e0:	e0bffd17 	ldw	r2,-12(fp)
    90e4:	10800017 	ldw	r2,0(r2)
    90e8:	11000044 	addi	r4,r2,1
    90ec:	e0fffd17 	ldw	r3,-12(fp)
    90f0:	19000015 	stw	r4,0(r3)
    90f4:	1085883a 	add	r2,r2,r2
    90f8:	1085883a 	add	r2,r2,r2
    90fc:	1007883a 	mov	r3,r2
    9100:	e0bffc17 	ldw	r2,-16(fp)
    9104:	10c7883a 	add	r3,r2,r3
    9108:	e0bff917 	ldw	r2,-28(fp)
    910c:	1085883a 	add	r2,r2,r2
    9110:	1085883a 	add	r2,r2,r2
    9114:	1009883a 	mov	r4,r2
    9118:	e0bffc17 	ldw	r2,-16(fp)
    911c:	1105883a 	add	r2,r2,r4
    9120:	10800017 	ldw	r2,0(r2)
    9124:	18800015 	stw	r2,0(r3)
	alt_32 i, j, n_old_npks, n_dist;
    maxim_sort_indices_descend( pn_x, pn_locs, *pn_npks );
    for ( i = -1; i < *pn_npks; i++ ){
        n_old_npks = *pn_npks;
        *pn_npks = i+1;
        for ( j = i+1; j < n_old_npks; j++ ){
    9128:	e0bff917 	ldw	r2,-28(fp)
    912c:	10800044 	addi	r2,r2,1
    9130:	e0bff915 	stw	r2,-28(fp)
    9134:	e0fff917 	ldw	r3,-28(fp)
    9138:	e0bffa17 	ldw	r2,-24(fp)
    913c:	18bfcc16 	blt	r3,r2,9070 <_gp+0xffff6424>
}
void maxim_remove_close_peaks(alt_32 *pn_locs, alt_32 *pn_npks, alt_32 *pn_x, alt_32 n_min_distance)
{
	alt_32 i, j, n_old_npks, n_dist;
    maxim_sort_indices_descend( pn_x, pn_locs, *pn_npks );
    for ( i = -1; i < *pn_npks; i++ ){
    9140:	e0bff817 	ldw	r2,-32(fp)
    9144:	10800044 	addi	r2,r2,1
    9148:	e0bff815 	stw	r2,-32(fp)
    914c:	e0bffd17 	ldw	r2,-12(fp)
    9150:	10800017 	ldw	r2,0(r2)
    9154:	e0fff817 	ldw	r3,-32(fp)
    9158:	18bfba16 	blt	r3,r2,9044 <_gp+0xffff63f8>
            n_dist =  pn_locs[j] - ( i == -1 ? -1 : pn_locs[i] ); // lag-zero peak of autocorr is at index -1
            if ( n_dist > n_min_distance || n_dist < -n_min_distance )
                pn_locs[(*pn_npks)++] = pn_locs[j];
        }
    }
    maxim_sort_ascend( pn_locs, *pn_npks );
    915c:	e0bffd17 	ldw	r2,-12(fp)
    9160:	10800017 	ldw	r2,0(r2)
    9164:	100b883a 	mov	r5,r2
    9168:	e13ffc17 	ldw	r4,-16(fp)
    916c:	00091880 	call	9188 <maxim_sort_ascend>
}
    9170:	0001883a 	nop
    9174:	e037883a 	mov	sp,fp
    9178:	dfc00117 	ldw	ra,4(sp)
    917c:	df000017 	ldw	fp,0(sp)
    9180:	dec00204 	addi	sp,sp,8
    9184:	f800283a 	ret

00009188 <maxim_sort_ascend>:
void maxim_sort_ascend(alt_32 *pn_x,alt_32 n_size)
{
    9188:	defffa04 	addi	sp,sp,-24
    918c:	df000515 	stw	fp,20(sp)
    9190:	df000504 	addi	fp,sp,20
    9194:	e13ffe15 	stw	r4,-8(fp)
    9198:	e17fff15 	stw	r5,-4(fp)
	alt_32 i, j, n_temp;
    for (i = 1; i < n_size; i++) {
    919c:	00800044 	movi	r2,1
    91a0:	e0bffb15 	stw	r2,-20(fp)
    91a4:	00003806 	br	9288 <maxim_sort_ascend+0x100>
        n_temp = pn_x[i];
    91a8:	e0bffb17 	ldw	r2,-20(fp)
    91ac:	1085883a 	add	r2,r2,r2
    91b0:	1085883a 	add	r2,r2,r2
    91b4:	1007883a 	mov	r3,r2
    91b8:	e0bffe17 	ldw	r2,-8(fp)
    91bc:	10c5883a 	add	r2,r2,r3
    91c0:	10800017 	ldw	r2,0(r2)
    91c4:	e0bffd15 	stw	r2,-12(fp)
        for (j = i; j > 0 && n_temp < pn_x[j-1]; j--)
    91c8:	e0bffb17 	ldw	r2,-20(fp)
    91cc:	e0bffc15 	stw	r2,-16(fp)
    91d0:	00001406 	br	9224 <maxim_sort_ascend+0x9c>
            pn_x[j] = pn_x[j-1];
    91d4:	e0bffc17 	ldw	r2,-16(fp)
    91d8:	1085883a 	add	r2,r2,r2
    91dc:	1085883a 	add	r2,r2,r2
    91e0:	1007883a 	mov	r3,r2
    91e4:	e0bffe17 	ldw	r2,-8(fp)
    91e8:	10c7883a 	add	r3,r2,r3
    91ec:	e13ffc17 	ldw	r4,-16(fp)
    91f0:	00900034 	movhi	r2,16384
    91f4:	10bfffc4 	addi	r2,r2,-1
    91f8:	2085883a 	add	r2,r4,r2
    91fc:	1085883a 	add	r2,r2,r2
    9200:	1085883a 	add	r2,r2,r2
    9204:	1009883a 	mov	r4,r2
    9208:	e0bffe17 	ldw	r2,-8(fp)
    920c:	1105883a 	add	r2,r2,r4
    9210:	10800017 	ldw	r2,0(r2)
    9214:	18800015 	stw	r2,0(r3)
void maxim_sort_ascend(alt_32 *pn_x,alt_32 n_size)
{
	alt_32 i, j, n_temp;
    for (i = 1; i < n_size; i++) {
        n_temp = pn_x[i];
        for (j = i; j > 0 && n_temp < pn_x[j-1]; j--)
    9218:	e0bffc17 	ldw	r2,-16(fp)
    921c:	10bfffc4 	addi	r2,r2,-1
    9220:	e0bffc15 	stw	r2,-16(fp)
    9224:	e0bffc17 	ldw	r2,-16(fp)
    9228:	00800c0e 	bge	zero,r2,925c <maxim_sort_ascend+0xd4>
    922c:	e0fffc17 	ldw	r3,-16(fp)
    9230:	00900034 	movhi	r2,16384
    9234:	10bfffc4 	addi	r2,r2,-1
    9238:	1885883a 	add	r2,r3,r2
    923c:	1085883a 	add	r2,r2,r2
    9240:	1085883a 	add	r2,r2,r2
    9244:	1007883a 	mov	r3,r2
    9248:	e0bffe17 	ldw	r2,-8(fp)
    924c:	10c5883a 	add	r2,r2,r3
    9250:	10800017 	ldw	r2,0(r2)
    9254:	e0fffd17 	ldw	r3,-12(fp)
    9258:	18bfde16 	blt	r3,r2,91d4 <_gp+0xffff6588>
            pn_x[j] = pn_x[j-1];
        pn_x[j] = n_temp;
    925c:	e0bffc17 	ldw	r2,-16(fp)
    9260:	1085883a 	add	r2,r2,r2
    9264:	1085883a 	add	r2,r2,r2
    9268:	1007883a 	mov	r3,r2
    926c:	e0bffe17 	ldw	r2,-8(fp)
    9270:	10c5883a 	add	r2,r2,r3
    9274:	e0fffd17 	ldw	r3,-12(fp)
    9278:	10c00015 	stw	r3,0(r2)
    maxim_sort_ascend( pn_locs, *pn_npks );
}
void maxim_sort_ascend(alt_32 *pn_x,alt_32 n_size)
{
	alt_32 i, j, n_temp;
    for (i = 1; i < n_size; i++) {
    927c:	e0bffb17 	ldw	r2,-20(fp)
    9280:	10800044 	addi	r2,r2,1
    9284:	e0bffb15 	stw	r2,-20(fp)
    9288:	e0fffb17 	ldw	r3,-20(fp)
    928c:	e0bfff17 	ldw	r2,-4(fp)
    9290:	18bfc516 	blt	r3,r2,91a8 <_gp+0xffff655c>
        n_temp = pn_x[i];
        for (j = i; j > 0 && n_temp < pn_x[j-1]; j--)
            pn_x[j] = pn_x[j-1];
        pn_x[j] = n_temp;
    }
}
    9294:	0001883a 	nop
    9298:	e037883a 	mov	sp,fp
    929c:	df000017 	ldw	fp,0(sp)
    92a0:	dec00104 	addi	sp,sp,4
    92a4:	f800283a 	ret

000092a8 <maxim_sort_indices_descend>:
void maxim_sort_indices_descend(alt_32 *pn_x, alt_32 *pn_indx, alt_32 n_size)
{
    92a8:	defff904 	addi	sp,sp,-28
    92ac:	df000615 	stw	fp,24(sp)
    92b0:	df000604 	addi	fp,sp,24
    92b4:	e13ffd15 	stw	r4,-12(fp)
    92b8:	e17ffe15 	stw	r5,-8(fp)
    92bc:	e1bfff15 	stw	r6,-4(fp)
	alt_32 i, j, n_temp;
    for (i = 1; i < n_size; i++) {
    92c0:	00800044 	movi	r2,1
    92c4:	e0bffa15 	stw	r2,-24(fp)
    92c8:	00004406 	br	93dc <maxim_sort_indices_descend+0x134>
        n_temp = pn_indx[i];
    92cc:	e0bffa17 	ldw	r2,-24(fp)
    92d0:	1085883a 	add	r2,r2,r2
    92d4:	1085883a 	add	r2,r2,r2
    92d8:	1007883a 	mov	r3,r2
    92dc:	e0bffe17 	ldw	r2,-8(fp)
    92e0:	10c5883a 	add	r2,r2,r3
    92e4:	10800017 	ldw	r2,0(r2)
    92e8:	e0bffc15 	stw	r2,-16(fp)
        for (j = i; j > 0 && pn_x[n_temp] > pn_x[pn_indx[j-1]]; j--)
    92ec:	e0bffa17 	ldw	r2,-24(fp)
    92f0:	e0bffb15 	stw	r2,-20(fp)
    92f4:	00001406 	br	9348 <maxim_sort_indices_descend+0xa0>
            pn_indx[j] = pn_indx[j-1];
    92f8:	e0bffb17 	ldw	r2,-20(fp)
    92fc:	1085883a 	add	r2,r2,r2
    9300:	1085883a 	add	r2,r2,r2
    9304:	1007883a 	mov	r3,r2
    9308:	e0bffe17 	ldw	r2,-8(fp)
    930c:	10c7883a 	add	r3,r2,r3
    9310:	e13ffb17 	ldw	r4,-20(fp)
    9314:	00900034 	movhi	r2,16384
    9318:	10bfffc4 	addi	r2,r2,-1
    931c:	2085883a 	add	r2,r4,r2
    9320:	1085883a 	add	r2,r2,r2
    9324:	1085883a 	add	r2,r2,r2
    9328:	1009883a 	mov	r4,r2
    932c:	e0bffe17 	ldw	r2,-8(fp)
    9330:	1105883a 	add	r2,r2,r4
    9334:	10800017 	ldw	r2,0(r2)
    9338:	18800015 	stw	r2,0(r3)
void maxim_sort_indices_descend(alt_32 *pn_x, alt_32 *pn_indx, alt_32 n_size)
{
	alt_32 i, j, n_temp;
    for (i = 1; i < n_size; i++) {
        n_temp = pn_indx[i];
        for (j = i; j > 0 && pn_x[n_temp] > pn_x[pn_indx[j-1]]; j--)
    933c:	e0bffb17 	ldw	r2,-20(fp)
    9340:	10bfffc4 	addi	r2,r2,-1
    9344:	e0bffb15 	stw	r2,-20(fp)
    9348:	e0bffb17 	ldw	r2,-20(fp)
    934c:	0080180e 	bge	zero,r2,93b0 <maxim_sort_indices_descend+0x108>
    9350:	e0bffc17 	ldw	r2,-16(fp)
    9354:	1085883a 	add	r2,r2,r2
    9358:	1085883a 	add	r2,r2,r2
    935c:	1007883a 	mov	r3,r2
    9360:	e0bffd17 	ldw	r2,-12(fp)
    9364:	10c5883a 	add	r2,r2,r3
    9368:	10c00017 	ldw	r3,0(r2)
    936c:	e13ffb17 	ldw	r4,-20(fp)
    9370:	00900034 	movhi	r2,16384
    9374:	10bfffc4 	addi	r2,r2,-1
    9378:	2085883a 	add	r2,r4,r2
    937c:	1085883a 	add	r2,r2,r2
    9380:	1085883a 	add	r2,r2,r2
    9384:	1009883a 	mov	r4,r2
    9388:	e0bffe17 	ldw	r2,-8(fp)
    938c:	1105883a 	add	r2,r2,r4
    9390:	10800017 	ldw	r2,0(r2)
    9394:	1085883a 	add	r2,r2,r2
    9398:	1085883a 	add	r2,r2,r2
    939c:	1009883a 	mov	r4,r2
    93a0:	e0bffd17 	ldw	r2,-12(fp)
    93a4:	1105883a 	add	r2,r2,r4
    93a8:	10800017 	ldw	r2,0(r2)
    93ac:	10ffd216 	blt	r2,r3,92f8 <_gp+0xffff66ac>
            pn_indx[j] = pn_indx[j-1];
        pn_indx[j] = n_temp;
    93b0:	e0bffb17 	ldw	r2,-20(fp)
    93b4:	1085883a 	add	r2,r2,r2
    93b8:	1085883a 	add	r2,r2,r2
    93bc:	1007883a 	mov	r3,r2
    93c0:	e0bffe17 	ldw	r2,-8(fp)
    93c4:	10c5883a 	add	r2,r2,r3
    93c8:	e0fffc17 	ldw	r3,-16(fp)
    93cc:	10c00015 	stw	r3,0(r2)
    }
}
void maxim_sort_indices_descend(alt_32 *pn_x, alt_32 *pn_indx, alt_32 n_size)
{
	alt_32 i, j, n_temp;
    for (i = 1; i < n_size; i++) {
    93d0:	e0bffa17 	ldw	r2,-24(fp)
    93d4:	10800044 	addi	r2,r2,1
    93d8:	e0bffa15 	stw	r2,-24(fp)
    93dc:	e0fffa17 	ldw	r3,-24(fp)
    93e0:	e0bfff17 	ldw	r2,-4(fp)
    93e4:	18bfb916 	blt	r3,r2,92cc <_gp+0xffff6680>
        n_temp = pn_indx[i];
        for (j = i; j > 0 && pn_x[n_temp] > pn_x[pn_indx[j-1]]; j--)
            pn_indx[j] = pn_indx[j-1];
        pn_indx[j] = n_temp;
    }
}
    93e8:	0001883a 	nop
    93ec:	e037883a 	mov	sp,fp
    93f0:	df000017 	ldw	fp,0(sp)
    93f4:	dec00104 	addi	sp,sp,4
    93f8:	f800283a 	ret

000093fc <__divsi3>:
    93fc:	20001b16 	blt	r4,zero,946c <__divsi3+0x70>
    9400:	000f883a 	mov	r7,zero
    9404:	28001616 	blt	r5,zero,9460 <__divsi3+0x64>
    9408:	200d883a 	mov	r6,r4
    940c:	29001a2e 	bgeu	r5,r4,9478 <__divsi3+0x7c>
    9410:	00800804 	movi	r2,32
    9414:	00c00044 	movi	r3,1
    9418:	00000106 	br	9420 <__divsi3+0x24>
    941c:	10000d26 	beq	r2,zero,9454 <__divsi3+0x58>
    9420:	294b883a 	add	r5,r5,r5
    9424:	10bfffc4 	addi	r2,r2,-1
    9428:	18c7883a 	add	r3,r3,r3
    942c:	293ffb36 	bltu	r5,r4,941c <_gp+0xffff67d0>
    9430:	0005883a 	mov	r2,zero
    9434:	18000726 	beq	r3,zero,9454 <__divsi3+0x58>
    9438:	0005883a 	mov	r2,zero
    943c:	31400236 	bltu	r6,r5,9448 <__divsi3+0x4c>
    9440:	314dc83a 	sub	r6,r6,r5
    9444:	10c4b03a 	or	r2,r2,r3
    9448:	1806d07a 	srli	r3,r3,1
    944c:	280ad07a 	srli	r5,r5,1
    9450:	183ffa1e 	bne	r3,zero,943c <_gp+0xffff67f0>
    9454:	38000126 	beq	r7,zero,945c <__divsi3+0x60>
    9458:	0085c83a 	sub	r2,zero,r2
    945c:	f800283a 	ret
    9460:	014bc83a 	sub	r5,zero,r5
    9464:	39c0005c 	xori	r7,r7,1
    9468:	003fe706 	br	9408 <_gp+0xffff67bc>
    946c:	0109c83a 	sub	r4,zero,r4
    9470:	01c00044 	movi	r7,1
    9474:	003fe306 	br	9404 <_gp+0xffff67b8>
    9478:	00c00044 	movi	r3,1
    947c:	003fee06 	br	9438 <_gp+0xffff67ec>

00009480 <__modsi3>:
    9480:	20001716 	blt	r4,zero,94e0 <__modsi3+0x60>
    9484:	000f883a 	mov	r7,zero
    9488:	2005883a 	mov	r2,r4
    948c:	28001216 	blt	r5,zero,94d8 <__modsi3+0x58>
    9490:	2900162e 	bgeu	r5,r4,94ec <__modsi3+0x6c>
    9494:	01800804 	movi	r6,32
    9498:	00c00044 	movi	r3,1
    949c:	00000106 	br	94a4 <__modsi3+0x24>
    94a0:	30000a26 	beq	r6,zero,94cc <__modsi3+0x4c>
    94a4:	294b883a 	add	r5,r5,r5
    94a8:	31bfffc4 	addi	r6,r6,-1
    94ac:	18c7883a 	add	r3,r3,r3
    94b0:	293ffb36 	bltu	r5,r4,94a0 <_gp+0xffff6854>
    94b4:	18000526 	beq	r3,zero,94cc <__modsi3+0x4c>
    94b8:	1806d07a 	srli	r3,r3,1
    94bc:	11400136 	bltu	r2,r5,94c4 <__modsi3+0x44>
    94c0:	1145c83a 	sub	r2,r2,r5
    94c4:	280ad07a 	srli	r5,r5,1
    94c8:	183ffb1e 	bne	r3,zero,94b8 <_gp+0xffff686c>
    94cc:	38000126 	beq	r7,zero,94d4 <__modsi3+0x54>
    94d0:	0085c83a 	sub	r2,zero,r2
    94d4:	f800283a 	ret
    94d8:	014bc83a 	sub	r5,zero,r5
    94dc:	003fec06 	br	9490 <_gp+0xffff6844>
    94e0:	0109c83a 	sub	r4,zero,r4
    94e4:	01c00044 	movi	r7,1
    94e8:	003fe706 	br	9488 <_gp+0xffff683c>
    94ec:	00c00044 	movi	r3,1
    94f0:	003ff106 	br	94b8 <_gp+0xffff686c>

000094f4 <__udivsi3>:
    94f4:	200d883a 	mov	r6,r4
    94f8:	2900152e 	bgeu	r5,r4,9550 <__udivsi3+0x5c>
    94fc:	28001416 	blt	r5,zero,9550 <__udivsi3+0x5c>
    9500:	00800804 	movi	r2,32
    9504:	00c00044 	movi	r3,1
    9508:	00000206 	br	9514 <__udivsi3+0x20>
    950c:	10000e26 	beq	r2,zero,9548 <__udivsi3+0x54>
    9510:	28000516 	blt	r5,zero,9528 <__udivsi3+0x34>
    9514:	294b883a 	add	r5,r5,r5
    9518:	10bfffc4 	addi	r2,r2,-1
    951c:	18c7883a 	add	r3,r3,r3
    9520:	293ffa36 	bltu	r5,r4,950c <_gp+0xffff68c0>
    9524:	18000826 	beq	r3,zero,9548 <__udivsi3+0x54>
    9528:	0005883a 	mov	r2,zero
    952c:	31400236 	bltu	r6,r5,9538 <__udivsi3+0x44>
    9530:	314dc83a 	sub	r6,r6,r5
    9534:	10c4b03a 	or	r2,r2,r3
    9538:	1806d07a 	srli	r3,r3,1
    953c:	280ad07a 	srli	r5,r5,1
    9540:	183ffa1e 	bne	r3,zero,952c <_gp+0xffff68e0>
    9544:	f800283a 	ret
    9548:	0005883a 	mov	r2,zero
    954c:	f800283a 	ret
    9550:	00c00044 	movi	r3,1
    9554:	003ff406 	br	9528 <_gp+0xffff68dc>

00009558 <__umodsi3>:
    9558:	2005883a 	mov	r2,r4
    955c:	2900122e 	bgeu	r5,r4,95a8 <__umodsi3+0x50>
    9560:	28001116 	blt	r5,zero,95a8 <__umodsi3+0x50>
    9564:	01800804 	movi	r6,32
    9568:	00c00044 	movi	r3,1
    956c:	00000206 	br	9578 <__umodsi3+0x20>
    9570:	30000c26 	beq	r6,zero,95a4 <__umodsi3+0x4c>
    9574:	28000516 	blt	r5,zero,958c <__umodsi3+0x34>
    9578:	294b883a 	add	r5,r5,r5
    957c:	31bfffc4 	addi	r6,r6,-1
    9580:	18c7883a 	add	r3,r3,r3
    9584:	293ffa36 	bltu	r5,r4,9570 <_gp+0xffff6924>
    9588:	18000626 	beq	r3,zero,95a4 <__umodsi3+0x4c>
    958c:	1806d07a 	srli	r3,r3,1
    9590:	11400136 	bltu	r2,r5,9598 <__umodsi3+0x40>
    9594:	1145c83a 	sub	r2,r2,r5
    9598:	280ad07a 	srli	r5,r5,1
    959c:	183ffb1e 	bne	r3,zero,958c <_gp+0xffff6940>
    95a0:	f800283a 	ret
    95a4:	f800283a 	ret
    95a8:	00c00044 	movi	r3,1
    95ac:	003ff706 	br	958c <_gp+0xffff6940>

000095b0 <__mulsi3>:
    95b0:	0005883a 	mov	r2,zero
    95b4:	20000726 	beq	r4,zero,95d4 <__mulsi3+0x24>
    95b8:	20c0004c 	andi	r3,r4,1
    95bc:	2008d07a 	srli	r4,r4,1
    95c0:	18000126 	beq	r3,zero,95c8 <__mulsi3+0x18>
    95c4:	1145883a 	add	r2,r2,r5
    95c8:	294b883a 	add	r5,r5,r5
    95cc:	203ffa1e 	bne	r4,zero,95b8 <_gp+0xffff696c>
    95d0:	f800283a 	ret
    95d4:	f800283a 	ret

000095d8 <__divsf3>:
    95d8:	defff504 	addi	sp,sp,-44
    95dc:	200cd5fa 	srli	r6,r4,23
    95e0:	dcc00415 	stw	r19,16(sp)
    95e4:	2026d7fa 	srli	r19,r4,31
    95e8:	00c02034 	movhi	r3,128
    95ec:	dd800715 	stw	r22,28(sp)
    95f0:	dd000515 	stw	r20,20(sp)
    95f4:	dc800315 	stw	r18,12(sp)
    95f8:	18ffffc4 	addi	r3,r3,-1
    95fc:	dfc00a15 	stw	ra,40(sp)
    9600:	df000915 	stw	fp,36(sp)
    9604:	ddc00815 	stw	r23,32(sp)
    9608:	dd400615 	stw	r21,24(sp)
    960c:	dc400215 	stw	r17,8(sp)
    9610:	dc000115 	stw	r16,4(sp)
    9614:	35003fcc 	andi	r20,r6,255
    9618:	1924703a 	and	r18,r3,r4
    961c:	9d803fcc 	andi	r22,r19,255
    9620:	a0005226 	beq	r20,zero,976c <__divsf3+0x194>
    9624:	00803fc4 	movi	r2,255
    9628:	a0802e26 	beq	r20,r2,96e4 <__divsf3+0x10c>
    962c:	91002034 	orhi	r4,r18,128
    9630:	202490fa 	slli	r18,r4,3
    9634:	a53fe044 	addi	r20,r20,-127
    9638:	0021883a 	mov	r16,zero
    963c:	002f883a 	mov	r23,zero
    9640:	280cd5fa 	srli	r6,r5,23
    9644:	282ad7fa 	srli	r21,r5,31
    9648:	00c02034 	movhi	r3,128
    964c:	18ffffc4 	addi	r3,r3,-1
    9650:	31803fcc 	andi	r6,r6,255
    9654:	1962703a 	and	r17,r3,r5
    9658:	af003fcc 	andi	fp,r21,255
    965c:	30004a26 	beq	r6,zero,9788 <__divsf3+0x1b0>
    9660:	00803fc4 	movi	r2,255
    9664:	30804526 	beq	r6,r2,977c <__divsf3+0x1a4>
    9668:	89402034 	orhi	r5,r17,128
    966c:	282290fa 	slli	r17,r5,3
    9670:	31bfe044 	addi	r6,r6,-127
    9674:	000b883a 	mov	r5,zero
    9678:	2c20b03a 	or	r16,r5,r16
    967c:	802090ba 	slli	r16,r16,2
    9680:	00800074 	movhi	r2,1
    9684:	10a5a904 	addi	r2,r2,-26972
    9688:	80a1883a 	add	r16,r16,r2
    968c:	81000017 	ldw	r4,0(r16)
    9690:	9d46f03a 	xor	r3,r19,r21
    9694:	180f883a 	mov	r7,r3
    9698:	18803fcc 	andi	r2,r3,255
    969c:	a18dc83a 	sub	r6,r20,r6
    96a0:	2000683a 	jmp	r4
    96a4:	00009888 	cmpgei	zero,zero,610
    96a8:	0000970c 	andi	zero,zero,604
    96ac:	0000987c 	xorhi	zero,zero,609
    96b0:	000096f8 	rdprs	zero,zero,603
    96b4:	0000987c 	xorhi	zero,zero,609
    96b8:	00009854 	movui	zero,609
    96bc:	0000987c 	xorhi	zero,zero,609
    96c0:	000096f8 	rdprs	zero,zero,603
    96c4:	0000970c 	andi	zero,zero,604
    96c8:	0000970c 	andi	zero,zero,604
    96cc:	00009854 	movui	zero,609
    96d0:	000096f8 	rdprs	zero,zero,603
    96d4:	00009968 	cmpgeui	zero,zero,613
    96d8:	00009968 	cmpgeui	zero,zero,613
    96dc:	00009968 	cmpgeui	zero,zero,613
    96e0:	0000991c 	xori	zero,zero,612
    96e4:	9000581e 	bne	r18,zero,9848 <__divsf3+0x270>
    96e8:	04000204 	movi	r16,8
    96ec:	05c00084 	movi	r23,2
    96f0:	003fd306 	br	9640 <_gp+0xffff69f4>
    96f4:	0023883a 	mov	r17,zero
    96f8:	e02d883a 	mov	r22,fp
    96fc:	282f883a 	mov	r23,r5
    9700:	00800084 	movi	r2,2
    9704:	b8808f1e 	bne	r23,r2,9944 <__divsf3+0x36c>
    9708:	b005883a 	mov	r2,r22
    970c:	11c0004c 	andi	r7,r2,1
    9710:	013fffc4 	movi	r4,-1
    9714:	000d883a 	mov	r6,zero
    9718:	21003fcc 	andi	r4,r4,255
    971c:	200895fa 	slli	r4,r4,23
    9720:	38803fcc 	andi	r2,r7,255
    9724:	00c02034 	movhi	r3,128
    9728:	100497fa 	slli	r2,r2,31
    972c:	18ffffc4 	addi	r3,r3,-1
    9730:	30c6703a 	and	r3,r6,r3
    9734:	1906b03a 	or	r3,r3,r4
    9738:	1884b03a 	or	r2,r3,r2
    973c:	dfc00a17 	ldw	ra,40(sp)
    9740:	df000917 	ldw	fp,36(sp)
    9744:	ddc00817 	ldw	r23,32(sp)
    9748:	dd800717 	ldw	r22,28(sp)
    974c:	dd400617 	ldw	r21,24(sp)
    9750:	dd000517 	ldw	r20,20(sp)
    9754:	dcc00417 	ldw	r19,16(sp)
    9758:	dc800317 	ldw	r18,12(sp)
    975c:	dc400217 	ldw	r17,8(sp)
    9760:	dc000117 	ldw	r16,4(sp)
    9764:	dec00b04 	addi	sp,sp,44
    9768:	f800283a 	ret
    976c:	90002b1e 	bne	r18,zero,981c <__divsf3+0x244>
    9770:	04000104 	movi	r16,4
    9774:	05c00044 	movi	r23,1
    9778:	003fb106 	br	9640 <_gp+0xffff69f4>
    977c:	8800251e 	bne	r17,zero,9814 <__divsf3+0x23c>
    9780:	01400084 	movi	r5,2
    9784:	00000206 	br	9790 <__divsf3+0x1b8>
    9788:	88001a1e 	bne	r17,zero,97f4 <__divsf3+0x21c>
    978c:	01400044 	movi	r5,1
    9790:	8160b03a 	or	r16,r16,r5
    9794:	802090ba 	slli	r16,r16,2
    9798:	00c00074 	movhi	r3,1
    979c:	18e5ed04 	addi	r3,r3,-26700
    97a0:	80e1883a 	add	r16,r16,r3
    97a4:	80c00017 	ldw	r3,0(r16)
    97a8:	9d44f03a 	xor	r2,r19,r21
    97ac:	a18dc83a 	sub	r6,r20,r6
    97b0:	1800683a 	jmp	r3
    97b4:	0000970c 	andi	zero,zero,604
    97b8:	0000970c 	andi	zero,zero,604
    97bc:	00009958 	cmpnei	zero,zero,613
    97c0:	000096f4 	movhi	zero,603
    97c4:	00009958 	cmpnei	zero,zero,613
    97c8:	00009854 	movui	zero,609
    97cc:	00009958 	cmpnei	zero,zero,613
    97d0:	000096f4 	movhi	zero,603
    97d4:	0000970c 	andi	zero,zero,604
    97d8:	0000970c 	andi	zero,zero,604
    97dc:	00009854 	movui	zero,609
    97e0:	000096f4 	movhi	zero,603
    97e4:	00009968 	cmpgeui	zero,zero,613
    97e8:	00009968 	cmpgeui	zero,zero,613
    97ec:	00009968 	cmpgeui	zero,zero,613
    97f0:	00009980 	call	998 <__alt_mem_RAM-0x7668>
    97f4:	8809883a 	mov	r4,r17
    97f8:	000a4c00 	call	a4c0 <__clzsi2>
    97fc:	10fffec4 	addi	r3,r2,-5
    9800:	10801d84 	addi	r2,r2,118
    9804:	88e2983a 	sll	r17,r17,r3
    9808:	008dc83a 	sub	r6,zero,r2
    980c:	000b883a 	mov	r5,zero
    9810:	003f9906 	br	9678 <_gp+0xffff6a2c>
    9814:	014000c4 	movi	r5,3
    9818:	003f9706 	br	9678 <_gp+0xffff6a2c>
    981c:	9009883a 	mov	r4,r18
    9820:	d9400015 	stw	r5,0(sp)
    9824:	000a4c00 	call	a4c0 <__clzsi2>
    9828:	10fffec4 	addi	r3,r2,-5
    982c:	11801d84 	addi	r6,r2,118
    9830:	90e4983a 	sll	r18,r18,r3
    9834:	01a9c83a 	sub	r20,zero,r6
    9838:	0021883a 	mov	r16,zero
    983c:	002f883a 	mov	r23,zero
    9840:	d9400017 	ldw	r5,0(sp)
    9844:	003f7e06 	br	9640 <_gp+0xffff69f4>
    9848:	04000304 	movi	r16,12
    984c:	05c000c4 	movi	r23,3
    9850:	003f7b06 	br	9640 <_gp+0xffff69f4>
    9854:	01802034 	movhi	r6,128
    9858:	000f883a 	mov	r7,zero
    985c:	31bfffc4 	addi	r6,r6,-1
    9860:	013fffc4 	movi	r4,-1
    9864:	003fac06 	br	9718 <_gp+0xffff6acc>
    9868:	01400044 	movi	r5,1
    986c:	2909c83a 	sub	r4,r5,r4
    9870:	00c006c4 	movi	r3,27
    9874:	19004b0e 	bge	r3,r4,99a4 <__divsf3+0x3cc>
    9878:	114e703a 	and	r7,r2,r5
    987c:	0009883a 	mov	r4,zero
    9880:	000d883a 	mov	r6,zero
    9884:	003fa406 	br	9718 <_gp+0xffff6acc>
    9888:	9006917a 	slli	r3,r18,5
    988c:	8822917a 	slli	r17,r17,5
    9890:	1c40372e 	bgeu	r3,r17,9970 <__divsf3+0x398>
    9894:	31bfffc4 	addi	r6,r6,-1
    9898:	010006c4 	movi	r4,27
    989c:	000b883a 	mov	r5,zero
    98a0:	180f883a 	mov	r7,r3
    98a4:	294b883a 	add	r5,r5,r5
    98a8:	18c7883a 	add	r3,r3,r3
    98ac:	38000116 	blt	r7,zero,98b4 <__divsf3+0x2dc>
    98b0:	1c400236 	bltu	r3,r17,98bc <__divsf3+0x2e4>
    98b4:	1c47c83a 	sub	r3,r3,r17
    98b8:	29400054 	ori	r5,r5,1
    98bc:	213fffc4 	addi	r4,r4,-1
    98c0:	203ff71e 	bne	r4,zero,98a0 <_gp+0xffff6c54>
    98c4:	1806c03a 	cmpne	r3,r3,zero
    98c8:	1962b03a 	or	r17,r3,r5
    98cc:	31001fc4 	addi	r4,r6,127
    98d0:	013fe50e 	bge	zero,r4,9868 <_gp+0xffff6c1c>
    98d4:	88c001cc 	andi	r3,r17,7
    98d8:	18000426 	beq	r3,zero,98ec <__divsf3+0x314>
    98dc:	88c003cc 	andi	r3,r17,15
    98e0:	01400104 	movi	r5,4
    98e4:	19400126 	beq	r3,r5,98ec <__divsf3+0x314>
    98e8:	8963883a 	add	r17,r17,r5
    98ec:	88c2002c 	andhi	r3,r17,2048
    98f0:	18000426 	beq	r3,zero,9904 <__divsf3+0x32c>
    98f4:	00fe0034 	movhi	r3,63488
    98f8:	18ffffc4 	addi	r3,r3,-1
    98fc:	31002004 	addi	r4,r6,128
    9900:	88e2703a 	and	r17,r17,r3
    9904:	00c03f84 	movi	r3,254
    9908:	193f8016 	blt	r3,r4,970c <_gp+0xffff6ac0>
    990c:	880c91ba 	slli	r6,r17,6
    9910:	11c0004c 	andi	r7,r2,1
    9914:	300cd27a 	srli	r6,r6,9
    9918:	003f7f06 	br	9718 <_gp+0xffff6acc>
    991c:	9080102c 	andhi	r2,r18,64
    9920:	10000226 	beq	r2,zero,992c <__divsf3+0x354>
    9924:	8880102c 	andhi	r2,r17,64
    9928:	10001826 	beq	r2,zero,998c <__divsf3+0x3b4>
    992c:	00802034 	movhi	r2,128
    9930:	91801034 	orhi	r6,r18,64
    9934:	10bfffc4 	addi	r2,r2,-1
    9938:	980f883a 	mov	r7,r19
    993c:	308c703a 	and	r6,r6,r2
    9940:	003fc706 	br	9860 <_gp+0xffff6c14>
    9944:	008000c4 	movi	r2,3
    9948:	b8802d26 	beq	r23,r2,9a00 <__divsf3+0x428>
    994c:	00c00044 	movi	r3,1
    9950:	b005883a 	mov	r2,r22
    9954:	b8ffdd1e 	bne	r23,r3,98cc <_gp+0xffff6c80>
    9958:	11c0004c 	andi	r7,r2,1
    995c:	0009883a 	mov	r4,zero
    9960:	000d883a 	mov	r6,zero
    9964:	003f6c06 	br	9718 <_gp+0xffff6acc>
    9968:	9023883a 	mov	r17,r18
    996c:	003f6406 	br	9700 <_gp+0xffff6ab4>
    9970:	1c47c83a 	sub	r3,r3,r17
    9974:	01000684 	movi	r4,26
    9978:	01400044 	movi	r5,1
    997c:	003fc806 	br	98a0 <_gp+0xffff6c54>
    9980:	9080102c 	andhi	r2,r18,64
    9984:	103fe926 	beq	r2,zero,992c <_gp+0xffff6ce0>
    9988:	0023883a 	mov	r17,zero
    998c:	00802034 	movhi	r2,128
    9990:	89801034 	orhi	r6,r17,64
    9994:	10bfffc4 	addi	r2,r2,-1
    9998:	a80f883a 	mov	r7,r21
    999c:	308c703a 	and	r6,r6,r2
    99a0:	003faf06 	br	9860 <_gp+0xffff6c14>
    99a4:	01c00804 	movi	r7,32
    99a8:	390fc83a 	sub	r7,r7,r4
    99ac:	89ce983a 	sll	r7,r17,r7
    99b0:	890ad83a 	srl	r5,r17,r4
    99b4:	380ec03a 	cmpne	r7,r7,zero
    99b8:	29cab03a 	or	r5,r5,r7
    99bc:	28c001cc 	andi	r3,r5,7
    99c0:	18000426 	beq	r3,zero,99d4 <__divsf3+0x3fc>
    99c4:	28c003cc 	andi	r3,r5,15
    99c8:	01000104 	movi	r4,4
    99cc:	19000126 	beq	r3,r4,99d4 <__divsf3+0x3fc>
    99d0:	290b883a 	add	r5,r5,r4
    99d4:	28c1002c 	andhi	r3,r5,1024
    99d8:	18000426 	beq	r3,zero,99ec <__divsf3+0x414>
    99dc:	11c0004c 	andi	r7,r2,1
    99e0:	01000044 	movi	r4,1
    99e4:	000d883a 	mov	r6,zero
    99e8:	003f4b06 	br	9718 <_gp+0xffff6acc>
    99ec:	280a91ba 	slli	r5,r5,6
    99f0:	11c0004c 	andi	r7,r2,1
    99f4:	0009883a 	mov	r4,zero
    99f8:	280cd27a 	srli	r6,r5,9
    99fc:	003f4606 	br	9718 <_gp+0xffff6acc>
    9a00:	00802034 	movhi	r2,128
    9a04:	89801034 	orhi	r6,r17,64
    9a08:	10bfffc4 	addi	r2,r2,-1
    9a0c:	b00f883a 	mov	r7,r22
    9a10:	308c703a 	and	r6,r6,r2
    9a14:	003f9206 	br	9860 <_gp+0xffff6c14>

00009a18 <__mulsf3>:
    9a18:	defff504 	addi	sp,sp,-44
    9a1c:	dc000115 	stw	r16,4(sp)
    9a20:	2020d5fa 	srli	r16,r4,23
    9a24:	dd400615 	stw	r21,24(sp)
    9a28:	202ad7fa 	srli	r21,r4,31
    9a2c:	dc800315 	stw	r18,12(sp)
    9a30:	04802034 	movhi	r18,128
    9a34:	df000915 	stw	fp,36(sp)
    9a38:	dd000515 	stw	r20,20(sp)
    9a3c:	94bfffc4 	addi	r18,r18,-1
    9a40:	dfc00a15 	stw	ra,40(sp)
    9a44:	ddc00815 	stw	r23,32(sp)
    9a48:	dd800715 	stw	r22,28(sp)
    9a4c:	dcc00415 	stw	r19,16(sp)
    9a50:	dc400215 	stw	r17,8(sp)
    9a54:	84003fcc 	andi	r16,r16,255
    9a58:	9124703a 	and	r18,r18,r4
    9a5c:	a829883a 	mov	r20,r21
    9a60:	af003fcc 	andi	fp,r21,255
    9a64:	80005426 	beq	r16,zero,9bb8 <__mulsf3+0x1a0>
    9a68:	00803fc4 	movi	r2,255
    9a6c:	80802f26 	beq	r16,r2,9b2c <__mulsf3+0x114>
    9a70:	91002034 	orhi	r4,r18,128
    9a74:	202490fa 	slli	r18,r4,3
    9a78:	843fe044 	addi	r16,r16,-127
    9a7c:	0023883a 	mov	r17,zero
    9a80:	002f883a 	mov	r23,zero
    9a84:	2804d5fa 	srli	r2,r5,23
    9a88:	282cd7fa 	srli	r22,r5,31
    9a8c:	01002034 	movhi	r4,128
    9a90:	213fffc4 	addi	r4,r4,-1
    9a94:	10803fcc 	andi	r2,r2,255
    9a98:	2166703a 	and	r19,r4,r5
    9a9c:	b1803fcc 	andi	r6,r22,255
    9aa0:	10004c26 	beq	r2,zero,9bd4 <__mulsf3+0x1bc>
    9aa4:	00c03fc4 	movi	r3,255
    9aa8:	10c04726 	beq	r2,r3,9bc8 <__mulsf3+0x1b0>
    9aac:	99002034 	orhi	r4,r19,128
    9ab0:	202690fa 	slli	r19,r4,3
    9ab4:	10bfe044 	addi	r2,r2,-127
    9ab8:	0007883a 	mov	r3,zero
    9abc:	80a1883a 	add	r16,r16,r2
    9ac0:	010003c4 	movi	r4,15
    9ac4:	1c44b03a 	or	r2,r3,r17
    9ac8:	b56af03a 	xor	r21,r22,r21
    9acc:	81c00044 	addi	r7,r16,1
    9ad0:	20806b36 	bltu	r4,r2,9c80 <__mulsf3+0x268>
    9ad4:	100490ba 	slli	r2,r2,2
    9ad8:	01000074 	movhi	r4,1
    9adc:	2126bb04 	addi	r4,r4,-25876
    9ae0:	1105883a 	add	r2,r2,r4
    9ae4:	10800017 	ldw	r2,0(r2)
    9ae8:	1000683a 	jmp	r2
    9aec:	00009c80 	call	9c8 <__alt_mem_RAM-0x7638>
    9af0:	00009b40 	call	9b4 <__alt_mem_RAM-0x764c>
    9af4:	00009b40 	call	9b4 <__alt_mem_RAM-0x764c>
    9af8:	00009b3c 	xorhi	zero,zero,620
    9afc:	00009c64 	muli	zero,zero,625
    9b00:	00009c64 	muli	zero,zero,625
    9b04:	00009c50 	cmplti	zero,zero,625
    9b08:	00009b3c 	xorhi	zero,zero,620
    9b0c:	00009c64 	muli	zero,zero,625
    9b10:	00009c50 	cmplti	zero,zero,625
    9b14:	00009c64 	muli	zero,zero,625
    9b18:	00009b3c 	xorhi	zero,zero,620
    9b1c:	00009c70 	cmpltui	zero,zero,625
    9b20:	00009c70 	cmpltui	zero,zero,625
    9b24:	00009c70 	cmpltui	zero,zero,625
    9b28:	00009d80 	call	9d8 <__alt_mem_RAM-0x7628>
    9b2c:	90003b1e 	bne	r18,zero,9c1c <__mulsf3+0x204>
    9b30:	04400204 	movi	r17,8
    9b34:	05c00084 	movi	r23,2
    9b38:	003fd206 	br	9a84 <_gp+0xffff6e38>
    9b3c:	302b883a 	mov	r21,r6
    9b40:	00800084 	movi	r2,2
    9b44:	18802626 	beq	r3,r2,9be0 <__mulsf3+0x1c8>
    9b48:	008000c4 	movi	r2,3
    9b4c:	1880b826 	beq	r3,r2,9e30 <__mulsf3+0x418>
    9b50:	00800044 	movi	r2,1
    9b54:	1880af1e 	bne	r3,r2,9e14 <__mulsf3+0x3fc>
    9b58:	a829883a 	mov	r20,r21
    9b5c:	0007883a 	mov	r3,zero
    9b60:	0009883a 	mov	r4,zero
    9b64:	18803fcc 	andi	r2,r3,255
    9b68:	100695fa 	slli	r3,r2,23
    9b6c:	a0803fcc 	andi	r2,r20,255
    9b70:	100a97fa 	slli	r5,r2,31
    9b74:	00802034 	movhi	r2,128
    9b78:	10bfffc4 	addi	r2,r2,-1
    9b7c:	2084703a 	and	r2,r4,r2
    9b80:	10c4b03a 	or	r2,r2,r3
    9b84:	1144b03a 	or	r2,r2,r5
    9b88:	dfc00a17 	ldw	ra,40(sp)
    9b8c:	df000917 	ldw	fp,36(sp)
    9b90:	ddc00817 	ldw	r23,32(sp)
    9b94:	dd800717 	ldw	r22,28(sp)
    9b98:	dd400617 	ldw	r21,24(sp)
    9b9c:	dd000517 	ldw	r20,20(sp)
    9ba0:	dcc00417 	ldw	r19,16(sp)
    9ba4:	dc800317 	ldw	r18,12(sp)
    9ba8:	dc400217 	ldw	r17,8(sp)
    9bac:	dc000117 	ldw	r16,4(sp)
    9bb0:	dec00b04 	addi	sp,sp,44
    9bb4:	f800283a 	ret
    9bb8:	90000d1e 	bne	r18,zero,9bf0 <__mulsf3+0x1d8>
    9bbc:	04400104 	movi	r17,4
    9bc0:	05c00044 	movi	r23,1
    9bc4:	003faf06 	br	9a84 <_gp+0xffff6e38>
    9bc8:	9806c03a 	cmpne	r3,r19,zero
    9bcc:	18c00084 	addi	r3,r3,2
    9bd0:	003fba06 	br	9abc <_gp+0xffff6e70>
    9bd4:	9800141e 	bne	r19,zero,9c28 <__mulsf3+0x210>
    9bd8:	00c00044 	movi	r3,1
    9bdc:	003fb706 	br	9abc <_gp+0xffff6e70>
    9be0:	a829883a 	mov	r20,r21
    9be4:	00ffffc4 	movi	r3,-1
    9be8:	0009883a 	mov	r4,zero
    9bec:	003fdd06 	br	9b64 <_gp+0xffff6f18>
    9bf0:	9009883a 	mov	r4,r18
    9bf4:	d9400015 	stw	r5,0(sp)
    9bf8:	000a4c00 	call	a4c0 <__clzsi2>
    9bfc:	10fffec4 	addi	r3,r2,-5
    9c00:	10801d84 	addi	r2,r2,118
    9c04:	90e4983a 	sll	r18,r18,r3
    9c08:	00a1c83a 	sub	r16,zero,r2
    9c0c:	0023883a 	mov	r17,zero
    9c10:	002f883a 	mov	r23,zero
    9c14:	d9400017 	ldw	r5,0(sp)
    9c18:	003f9a06 	br	9a84 <_gp+0xffff6e38>
    9c1c:	04400304 	movi	r17,12
    9c20:	05c000c4 	movi	r23,3
    9c24:	003f9706 	br	9a84 <_gp+0xffff6e38>
    9c28:	9809883a 	mov	r4,r19
    9c2c:	d9800015 	stw	r6,0(sp)
    9c30:	000a4c00 	call	a4c0 <__clzsi2>
    9c34:	10fffec4 	addi	r3,r2,-5
    9c38:	10801d84 	addi	r2,r2,118
    9c3c:	98e6983a 	sll	r19,r19,r3
    9c40:	0085c83a 	sub	r2,zero,r2
    9c44:	0007883a 	mov	r3,zero
    9c48:	d9800017 	ldw	r6,0(sp)
    9c4c:	003f9b06 	br	9abc <_gp+0xffff6e70>
    9c50:	01002034 	movhi	r4,128
    9c54:	0029883a 	mov	r20,zero
    9c58:	213fffc4 	addi	r4,r4,-1
    9c5c:	00ffffc4 	movi	r3,-1
    9c60:	003fc006 	br	9b64 <_gp+0xffff6f18>
    9c64:	9027883a 	mov	r19,r18
    9c68:	b807883a 	mov	r3,r23
    9c6c:	003fb406 	br	9b40 <_gp+0xffff6ef4>
    9c70:	9027883a 	mov	r19,r18
    9c74:	e02b883a 	mov	r21,fp
    9c78:	b807883a 	mov	r3,r23
    9c7c:	003fb006 	br	9b40 <_gp+0xffff6ef4>
    9c80:	9028d43a 	srli	r20,r18,16
    9c84:	982cd43a 	srli	r22,r19,16
    9c88:	94bfffcc 	andi	r18,r18,65535
    9c8c:	9cffffcc 	andi	r19,r19,65535
    9c90:	980b883a 	mov	r5,r19
    9c94:	9009883a 	mov	r4,r18
    9c98:	d9c00015 	stw	r7,0(sp)
    9c9c:	00095b00 	call	95b0 <__mulsi3>
    9ca0:	a00b883a 	mov	r5,r20
    9ca4:	9809883a 	mov	r4,r19
    9ca8:	1023883a 	mov	r17,r2
    9cac:	00095b00 	call	95b0 <__mulsi3>
    9cb0:	a009883a 	mov	r4,r20
    9cb4:	b00b883a 	mov	r5,r22
    9cb8:	1027883a 	mov	r19,r2
    9cbc:	00095b00 	call	95b0 <__mulsi3>
    9cc0:	b00b883a 	mov	r5,r22
    9cc4:	9009883a 	mov	r4,r18
    9cc8:	1029883a 	mov	r20,r2
    9ccc:	00095b00 	call	95b0 <__mulsi3>
    9cd0:	8806d43a 	srli	r3,r17,16
    9cd4:	14c5883a 	add	r2,r2,r19
    9cd8:	d9c00017 	ldw	r7,0(sp)
    9cdc:	1885883a 	add	r2,r3,r2
    9ce0:	14c0022e 	bgeu	r2,r19,9cec <__mulsf3+0x2d4>
    9ce4:	00c00074 	movhi	r3,1
    9ce8:	a0e9883a 	add	r20,r20,r3
    9cec:	1026943a 	slli	r19,r2,16
    9cf0:	8c7fffcc 	andi	r17,r17,65535
    9cf4:	1004d43a 	srli	r2,r2,16
    9cf8:	9c63883a 	add	r17,r19,r17
    9cfc:	882691ba 	slli	r19,r17,6
    9d00:	1505883a 	add	r2,r2,r20
    9d04:	8822d6ba 	srli	r17,r17,26
    9d08:	100891ba 	slli	r4,r2,6
    9d0c:	9826c03a 	cmpne	r19,r19,zero
    9d10:	9c62b03a 	or	r17,r19,r17
    9d14:	8926b03a 	or	r19,r17,r4
    9d18:	9882002c 	andhi	r2,r19,2048
    9d1c:	10000426 	beq	r2,zero,9d30 <__mulsf3+0x318>
    9d20:	9804d07a 	srli	r2,r19,1
    9d24:	9900004c 	andi	r4,r19,1
    9d28:	3821883a 	mov	r16,r7
    9d2c:	1126b03a 	or	r19,r2,r4
    9d30:	80c01fc4 	addi	r3,r16,127
    9d34:	00c0210e 	bge	zero,r3,9dbc <__mulsf3+0x3a4>
    9d38:	988001cc 	andi	r2,r19,7
    9d3c:	10000426 	beq	r2,zero,9d50 <__mulsf3+0x338>
    9d40:	988003cc 	andi	r2,r19,15
    9d44:	01000104 	movi	r4,4
    9d48:	11000126 	beq	r2,r4,9d50 <__mulsf3+0x338>
    9d4c:	9927883a 	add	r19,r19,r4
    9d50:	9882002c 	andhi	r2,r19,2048
    9d54:	10000426 	beq	r2,zero,9d68 <__mulsf3+0x350>
    9d58:	00be0034 	movhi	r2,63488
    9d5c:	10bfffc4 	addi	r2,r2,-1
    9d60:	80c02004 	addi	r3,r16,128
    9d64:	98a6703a 	and	r19,r19,r2
    9d68:	00803f84 	movi	r2,254
    9d6c:	10ff9c16 	blt	r2,r3,9be0 <_gp+0xffff6f94>
    9d70:	980891ba 	slli	r4,r19,6
    9d74:	a829883a 	mov	r20,r21
    9d78:	2008d27a 	srli	r4,r4,9
    9d7c:	003f7906 	br	9b64 <_gp+0xffff6f18>
    9d80:	9080102c 	andhi	r2,r18,64
    9d84:	10000826 	beq	r2,zero,9da8 <__mulsf3+0x390>
    9d88:	9880102c 	andhi	r2,r19,64
    9d8c:	1000061e 	bne	r2,zero,9da8 <__mulsf3+0x390>
    9d90:	00802034 	movhi	r2,128
    9d94:	99001034 	orhi	r4,r19,64
    9d98:	10bfffc4 	addi	r2,r2,-1
    9d9c:	b029883a 	mov	r20,r22
    9da0:	2088703a 	and	r4,r4,r2
    9da4:	003fad06 	br	9c5c <_gp+0xffff7010>
    9da8:	00802034 	movhi	r2,128
    9dac:	91001034 	orhi	r4,r18,64
    9db0:	10bfffc4 	addi	r2,r2,-1
    9db4:	2088703a 	and	r4,r4,r2
    9db8:	003fa806 	br	9c5c <_gp+0xffff7010>
    9dbc:	00800044 	movi	r2,1
    9dc0:	10c7c83a 	sub	r3,r2,r3
    9dc4:	008006c4 	movi	r2,27
    9dc8:	10ff6316 	blt	r2,r3,9b58 <_gp+0xffff6f0c>
    9dcc:	00800804 	movi	r2,32
    9dd0:	10c5c83a 	sub	r2,r2,r3
    9dd4:	9884983a 	sll	r2,r19,r2
    9dd8:	98c6d83a 	srl	r3,r19,r3
    9ddc:	1004c03a 	cmpne	r2,r2,zero
    9de0:	1884b03a 	or	r2,r3,r2
    9de4:	10c001cc 	andi	r3,r2,7
    9de8:	18000426 	beq	r3,zero,9dfc <__mulsf3+0x3e4>
    9dec:	10c003cc 	andi	r3,r2,15
    9df0:	01000104 	movi	r4,4
    9df4:	19000126 	beq	r3,r4,9dfc <__mulsf3+0x3e4>
    9df8:	1105883a 	add	r2,r2,r4
    9dfc:	10c1002c 	andhi	r3,r2,1024
    9e00:	18000626 	beq	r3,zero,9e1c <__mulsf3+0x404>
    9e04:	a829883a 	mov	r20,r21
    9e08:	00c00044 	movi	r3,1
    9e0c:	0009883a 	mov	r4,zero
    9e10:	003f5406 	br	9b64 <_gp+0xffff6f18>
    9e14:	3821883a 	mov	r16,r7
    9e18:	003fc506 	br	9d30 <_gp+0xffff70e4>
    9e1c:	100491ba 	slli	r2,r2,6
    9e20:	a829883a 	mov	r20,r21
    9e24:	0007883a 	mov	r3,zero
    9e28:	1008d27a 	srli	r4,r2,9
    9e2c:	003f4d06 	br	9b64 <_gp+0xffff6f18>
    9e30:	00802034 	movhi	r2,128
    9e34:	99001034 	orhi	r4,r19,64
    9e38:	10bfffc4 	addi	r2,r2,-1
    9e3c:	a829883a 	mov	r20,r21
    9e40:	2088703a 	and	r4,r4,r2
    9e44:	003f8506 	br	9c5c <_gp+0xffff7010>

00009e48 <__subsf3>:
    9e48:	defffc04 	addi	sp,sp,-16
    9e4c:	280cd5fa 	srli	r6,r5,23
    9e50:	dc000015 	stw	r16,0(sp)
    9e54:	01c02034 	movhi	r7,128
    9e58:	2020d5fa 	srli	r16,r4,23
    9e5c:	39ffffc4 	addi	r7,r7,-1
    9e60:	3906703a 	and	r3,r7,r4
    9e64:	dc400115 	stw	r17,4(sp)
    9e68:	394e703a 	and	r7,r7,r5
    9e6c:	2022d7fa 	srli	r17,r4,31
    9e70:	dfc00315 	stw	ra,12(sp)
    9e74:	dc800215 	stw	r18,8(sp)
    9e78:	31803fcc 	andi	r6,r6,255
    9e7c:	01003fc4 	movi	r4,255
    9e80:	84003fcc 	andi	r16,r16,255
    9e84:	180690fa 	slli	r3,r3,3
    9e88:	2804d7fa 	srli	r2,r5,31
    9e8c:	380e90fa 	slli	r7,r7,3
    9e90:	31006d26 	beq	r6,r4,a048 <__subsf3+0x200>
    9e94:	1080005c 	xori	r2,r2,1
    9e98:	8189c83a 	sub	r4,r16,r6
    9e9c:	14404f26 	beq	r2,r17,9fdc <__subsf3+0x194>
    9ea0:	0100770e 	bge	zero,r4,a080 <__subsf3+0x238>
    9ea4:	30001e1e 	bne	r6,zero,9f20 <__subsf3+0xd8>
    9ea8:	38006a1e 	bne	r7,zero,a054 <__subsf3+0x20c>
    9eac:	188001cc 	andi	r2,r3,7
    9eb0:	10000426 	beq	r2,zero,9ec4 <__subsf3+0x7c>
    9eb4:	188003cc 	andi	r2,r3,15
    9eb8:	01000104 	movi	r4,4
    9ebc:	11000126 	beq	r2,r4,9ec4 <__subsf3+0x7c>
    9ec0:	1907883a 	add	r3,r3,r4
    9ec4:	1881002c 	andhi	r2,r3,1024
    9ec8:	10003926 	beq	r2,zero,9fb0 <__subsf3+0x168>
    9ecc:	84000044 	addi	r16,r16,1
    9ed0:	00803fc4 	movi	r2,255
    9ed4:	80807526 	beq	r16,r2,a0ac <__subsf3+0x264>
    9ed8:	180691ba 	slli	r3,r3,6
    9edc:	8880004c 	andi	r2,r17,1
    9ee0:	180ad27a 	srli	r5,r3,9
    9ee4:	84003fcc 	andi	r16,r16,255
    9ee8:	800695fa 	slli	r3,r16,23
    9eec:	10803fcc 	andi	r2,r2,255
    9ef0:	01002034 	movhi	r4,128
    9ef4:	213fffc4 	addi	r4,r4,-1
    9ef8:	100497fa 	slli	r2,r2,31
    9efc:	2920703a 	and	r16,r5,r4
    9f00:	80e0b03a 	or	r16,r16,r3
    9f04:	8084b03a 	or	r2,r16,r2
    9f08:	dfc00317 	ldw	ra,12(sp)
    9f0c:	dc800217 	ldw	r18,8(sp)
    9f10:	dc400117 	ldw	r17,4(sp)
    9f14:	dc000017 	ldw	r16,0(sp)
    9f18:	dec00404 	addi	sp,sp,16
    9f1c:	f800283a 	ret
    9f20:	00803fc4 	movi	r2,255
    9f24:	80bfe126 	beq	r16,r2,9eac <_gp+0xffff7260>
    9f28:	39c10034 	orhi	r7,r7,1024
    9f2c:	008006c4 	movi	r2,27
    9f30:	11007416 	blt	r2,r4,a104 <__subsf3+0x2bc>
    9f34:	00800804 	movi	r2,32
    9f38:	1105c83a 	sub	r2,r2,r4
    9f3c:	3884983a 	sll	r2,r7,r2
    9f40:	390ed83a 	srl	r7,r7,r4
    9f44:	1008c03a 	cmpne	r4,r2,zero
    9f48:	390eb03a 	or	r7,r7,r4
    9f4c:	19c7c83a 	sub	r3,r3,r7
    9f50:	1881002c 	andhi	r2,r3,1024
    9f54:	10001426 	beq	r2,zero,9fa8 <__subsf3+0x160>
    9f58:	04810034 	movhi	r18,1024
    9f5c:	94bfffc4 	addi	r18,r18,-1
    9f60:	1ca4703a 	and	r18,r3,r18
    9f64:	9009883a 	mov	r4,r18
    9f68:	000a4c00 	call	a4c0 <__clzsi2>
    9f6c:	10bffec4 	addi	r2,r2,-5
    9f70:	90a4983a 	sll	r18,r18,r2
    9f74:	14005116 	blt	r2,r16,a0bc <__subsf3+0x274>
    9f78:	1405c83a 	sub	r2,r2,r16
    9f7c:	10c00044 	addi	r3,r2,1
    9f80:	00800804 	movi	r2,32
    9f84:	10c5c83a 	sub	r2,r2,r3
    9f88:	9084983a 	sll	r2,r18,r2
    9f8c:	90e4d83a 	srl	r18,r18,r3
    9f90:	0021883a 	mov	r16,zero
    9f94:	1006c03a 	cmpne	r3,r2,zero
    9f98:	90c6b03a 	or	r3,r18,r3
    9f9c:	003fc306 	br	9eac <_gp+0xffff7260>
    9fa0:	2000e026 	beq	r4,zero,a324 <__subsf3+0x4dc>
    9fa4:	2007883a 	mov	r3,r4
    9fa8:	188001cc 	andi	r2,r3,7
    9fac:	103fc11e 	bne	r2,zero,9eb4 <_gp+0xffff7268>
    9fb0:	180ad0fa 	srli	r5,r3,3
    9fb4:	00c03fc4 	movi	r3,255
    9fb8:	8880004c 	andi	r2,r17,1
    9fbc:	80c0031e 	bne	r16,r3,9fcc <__subsf3+0x184>
    9fc0:	28006d26 	beq	r5,zero,a178 <__subsf3+0x330>
    9fc4:	29401034 	orhi	r5,r5,64
    9fc8:	043fffc4 	movi	r16,-1
    9fcc:	00c02034 	movhi	r3,128
    9fd0:	18ffffc4 	addi	r3,r3,-1
    9fd4:	28ca703a 	and	r5,r5,r3
    9fd8:	003fc206 	br	9ee4 <_gp+0xffff7298>
    9fdc:	01003c0e 	bge	zero,r4,a0d0 <__subsf3+0x288>
    9fe0:	30002126 	beq	r6,zero,a068 <__subsf3+0x220>
    9fe4:	01403fc4 	movi	r5,255
    9fe8:	817fb026 	beq	r16,r5,9eac <_gp+0xffff7260>
    9fec:	39c10034 	orhi	r7,r7,1024
    9ff0:	014006c4 	movi	r5,27
    9ff4:	29007416 	blt	r5,r4,a1c8 <__subsf3+0x380>
    9ff8:	01400804 	movi	r5,32
    9ffc:	290bc83a 	sub	r5,r5,r4
    a000:	394a983a 	sll	r5,r7,r5
    a004:	390ed83a 	srl	r7,r7,r4
    a008:	2808c03a 	cmpne	r4,r5,zero
    a00c:	390eb03a 	or	r7,r7,r4
    a010:	19c7883a 	add	r3,r3,r7
    a014:	1901002c 	andhi	r4,r3,1024
    a018:	20003826 	beq	r4,zero,a0fc <__subsf3+0x2b4>
    a01c:	84000044 	addi	r16,r16,1
    a020:	01003fc4 	movi	r4,255
    a024:	81005426 	beq	r16,r4,a178 <__subsf3+0x330>
    a028:	1023883a 	mov	r17,r2
    a02c:	00bf0034 	movhi	r2,64512
    a030:	10bfffc4 	addi	r2,r2,-1
    a034:	1900004c 	andi	r4,r3,1
    a038:	1886703a 	and	r3,r3,r2
    a03c:	1806d07a 	srli	r3,r3,1
    a040:	1906b03a 	or	r3,r3,r4
    a044:	003f9906 	br	9eac <_gp+0xffff7260>
    a048:	383f9226 	beq	r7,zero,9e94 <_gp+0xffff7248>
    a04c:	10803fcc 	andi	r2,r2,255
    a050:	003f9106 	br	9e98 <_gp+0xffff724c>
    a054:	213fffc4 	addi	r4,r4,-1
    a058:	203fbc26 	beq	r4,zero,9f4c <_gp+0xffff7300>
    a05c:	00803fc4 	movi	r2,255
    a060:	80bfb21e 	bne	r16,r2,9f2c <_gp+0xffff72e0>
    a064:	003f9106 	br	9eac <_gp+0xffff7260>
    a068:	383f9026 	beq	r7,zero,9eac <_gp+0xffff7260>
    a06c:	213fffc4 	addi	r4,r4,-1
    a070:	203fe726 	beq	r4,zero,a010 <_gp+0xffff73c4>
    a074:	01403fc4 	movi	r5,255
    a078:	817fdd1e 	bne	r16,r5,9ff0 <_gp+0xffff73a4>
    a07c:	003f8b06 	br	9eac <_gp+0xffff7260>
    a080:	2000221e 	bne	r4,zero,a10c <__subsf3+0x2c4>
    a084:	81000044 	addi	r4,r16,1
    a088:	21003fcc 	andi	r4,r4,255
    a08c:	01400044 	movi	r5,1
    a090:	2900470e 	bge	r5,r4,a1b0 <__subsf3+0x368>
    a094:	19e5c83a 	sub	r18,r3,r7
    a098:	9141002c 	andhi	r5,r18,1024
    a09c:	28002d26 	beq	r5,zero,a154 <__subsf3+0x30c>
    a0a0:	38e5c83a 	sub	r18,r7,r3
    a0a4:	1023883a 	mov	r17,r2
    a0a8:	003fae06 	br	9f64 <_gp+0xffff7318>
    a0ac:	8880004c 	andi	r2,r17,1
    a0b0:	043fffc4 	movi	r16,-1
    a0b4:	000b883a 	mov	r5,zero
    a0b8:	003f8a06 	br	9ee4 <_gp+0xffff7298>
    a0bc:	00ff0034 	movhi	r3,64512
    a0c0:	18ffffc4 	addi	r3,r3,-1
    a0c4:	80a1c83a 	sub	r16,r16,r2
    a0c8:	90c6703a 	and	r3,r18,r3
    a0cc:	003f7706 	br	9eac <_gp+0xffff7260>
    a0d0:	2000431e 	bne	r4,zero,a1e0 <__subsf3+0x398>
    a0d4:	81000044 	addi	r4,r16,1
    a0d8:	21803fcc 	andi	r6,r4,255
    a0dc:	01400044 	movi	r5,1
    a0e0:	2980280e 	bge	r5,r6,a184 <__subsf3+0x33c>
    a0e4:	01403fc4 	movi	r5,255
    a0e8:	21402326 	beq	r4,r5,a178 <__subsf3+0x330>
    a0ec:	19c7883a 	add	r3,r3,r7
    a0f0:	1806d07a 	srli	r3,r3,1
    a0f4:	2021883a 	mov	r16,r4
    a0f8:	003f6c06 	br	9eac <_gp+0xffff7260>
    a0fc:	1023883a 	mov	r17,r2
    a100:	003fa906 	br	9fa8 <_gp+0xffff735c>
    a104:	01c00044 	movi	r7,1
    a108:	003f9006 	br	9f4c <_gp+0xffff7300>
    a10c:	8000151e 	bne	r16,zero,a164 <__subsf3+0x31c>
    a110:	18002f26 	beq	r3,zero,a1d0 <__subsf3+0x388>
    a114:	0108303a 	nor	r4,zero,r4
    a118:	20000a26 	beq	r4,zero,a144 <__subsf3+0x2fc>
    a11c:	01403fc4 	movi	r5,255
    a120:	31402b26 	beq	r6,r5,a1d0 <__subsf3+0x388>
    a124:	014006c4 	movi	r5,27
    a128:	29006e16 	blt	r5,r4,a2e4 <__subsf3+0x49c>
    a12c:	01400804 	movi	r5,32
    a130:	290bc83a 	sub	r5,r5,r4
    a134:	194a983a 	sll	r5,r3,r5
    a138:	1908d83a 	srl	r4,r3,r4
    a13c:	2806c03a 	cmpne	r3,r5,zero
    a140:	20c6b03a 	or	r3,r4,r3
    a144:	38c7c83a 	sub	r3,r7,r3
    a148:	3021883a 	mov	r16,r6
    a14c:	1023883a 	mov	r17,r2
    a150:	003f7f06 	br	9f50 <_gp+0xffff7304>
    a154:	903f831e 	bne	r18,zero,9f64 <_gp+0xffff7318>
    a158:	0005883a 	mov	r2,zero
    a15c:	0021883a 	mov	r16,zero
    a160:	003f9a06 	br	9fcc <_gp+0xffff7380>
    a164:	01403fc4 	movi	r5,255
    a168:	31401926 	beq	r6,r5,a1d0 <__subsf3+0x388>
    a16c:	0109c83a 	sub	r4,zero,r4
    a170:	18c10034 	orhi	r3,r3,1024
    a174:	003feb06 	br	a124 <_gp+0xffff74d8>
    a178:	043fffc4 	movi	r16,-1
    a17c:	000b883a 	mov	r5,zero
    a180:	003f5806 	br	9ee4 <_gp+0xffff7298>
    a184:	8000481e 	bne	r16,zero,a2a8 <__subsf3+0x460>
    a188:	18006226 	beq	r3,zero,a314 <__subsf3+0x4cc>
    a18c:	383f4726 	beq	r7,zero,9eac <_gp+0xffff7260>
    a190:	19c7883a 	add	r3,r3,r7
    a194:	1881002c 	andhi	r2,r3,1024
    a198:	103f8326 	beq	r2,zero,9fa8 <_gp+0xffff735c>
    a19c:	00bf0034 	movhi	r2,64512
    a1a0:	10bfffc4 	addi	r2,r2,-1
    a1a4:	2821883a 	mov	r16,r5
    a1a8:	1886703a 	and	r3,r3,r2
    a1ac:	003f3f06 	br	9eac <_gp+0xffff7260>
    a1b0:	80001c1e 	bne	r16,zero,a224 <__subsf3+0x3dc>
    a1b4:	1800261e 	bne	r3,zero,a250 <__subsf3+0x408>
    a1b8:	38004c26 	beq	r7,zero,a2ec <__subsf3+0x4a4>
    a1bc:	3807883a 	mov	r3,r7
    a1c0:	1023883a 	mov	r17,r2
    a1c4:	003f3906 	br	9eac <_gp+0xffff7260>
    a1c8:	01c00044 	movi	r7,1
    a1cc:	003f9006 	br	a010 <_gp+0xffff73c4>
    a1d0:	3807883a 	mov	r3,r7
    a1d4:	3021883a 	mov	r16,r6
    a1d8:	1023883a 	mov	r17,r2
    a1dc:	003f3306 	br	9eac <_gp+0xffff7260>
    a1e0:	8000161e 	bne	r16,zero,a23c <__subsf3+0x3f4>
    a1e4:	18002d26 	beq	r3,zero,a29c <__subsf3+0x454>
    a1e8:	0108303a 	nor	r4,zero,r4
    a1ec:	20000a26 	beq	r4,zero,a218 <__subsf3+0x3d0>
    a1f0:	01403fc4 	movi	r5,255
    a1f4:	31402926 	beq	r6,r5,a29c <__subsf3+0x454>
    a1f8:	014006c4 	movi	r5,27
    a1fc:	29004716 	blt	r5,r4,a31c <__subsf3+0x4d4>
    a200:	01400804 	movi	r5,32
    a204:	290bc83a 	sub	r5,r5,r4
    a208:	194a983a 	sll	r5,r3,r5
    a20c:	1908d83a 	srl	r4,r3,r4
    a210:	2806c03a 	cmpne	r3,r5,zero
    a214:	20c6b03a 	or	r3,r4,r3
    a218:	19c7883a 	add	r3,r3,r7
    a21c:	3021883a 	mov	r16,r6
    a220:	003f7c06 	br	a014 <_gp+0xffff73c8>
    a224:	1800111e 	bne	r3,zero,a26c <__subsf3+0x424>
    a228:	38003326 	beq	r7,zero,a2f8 <__subsf3+0x4b0>
    a22c:	3807883a 	mov	r3,r7
    a230:	1023883a 	mov	r17,r2
    a234:	04003fc4 	movi	r16,255
    a238:	003f1c06 	br	9eac <_gp+0xffff7260>
    a23c:	01403fc4 	movi	r5,255
    a240:	31401626 	beq	r6,r5,a29c <__subsf3+0x454>
    a244:	0109c83a 	sub	r4,zero,r4
    a248:	18c10034 	orhi	r3,r3,1024
    a24c:	003fea06 	br	a1f8 <_gp+0xffff75ac>
    a250:	383f1626 	beq	r7,zero,9eac <_gp+0xffff7260>
    a254:	19c9c83a 	sub	r4,r3,r7
    a258:	2141002c 	andhi	r5,r4,1024
    a25c:	283f5026 	beq	r5,zero,9fa0 <_gp+0xffff7354>
    a260:	38c7c83a 	sub	r3,r7,r3
    a264:	1023883a 	mov	r17,r2
    a268:	003f1006 	br	9eac <_gp+0xffff7260>
    a26c:	38001b26 	beq	r7,zero,a2dc <__subsf3+0x494>
    a270:	1806d0fa 	srli	r3,r3,3
    a274:	1900102c 	andhi	r4,r3,64
    a278:	20000526 	beq	r4,zero,a290 <__subsf3+0x448>
    a27c:	380ed0fa 	srli	r7,r7,3
    a280:	3900102c 	andhi	r4,r7,64
    a284:	2000021e 	bne	r4,zero,a290 <__subsf3+0x448>
    a288:	3807883a 	mov	r3,r7
    a28c:	1023883a 	mov	r17,r2
    a290:	180690fa 	slli	r3,r3,3
    a294:	04003fc4 	movi	r16,255
    a298:	003f0406 	br	9eac <_gp+0xffff7260>
    a29c:	3807883a 	mov	r3,r7
    a2a0:	3021883a 	mov	r16,r6
    a2a4:	003f0106 	br	9eac <_gp+0xffff7260>
    a2a8:	18001726 	beq	r3,zero,a308 <__subsf3+0x4c0>
    a2ac:	38000b26 	beq	r7,zero,a2dc <__subsf3+0x494>
    a2b0:	1806d0fa 	srli	r3,r3,3
    a2b4:	1900102c 	andhi	r4,r3,64
    a2b8:	20000426 	beq	r4,zero,a2cc <__subsf3+0x484>
    a2bc:	380ed0fa 	srli	r7,r7,3
    a2c0:	3900102c 	andhi	r4,r7,64
    a2c4:	2000011e 	bne	r4,zero,a2cc <__subsf3+0x484>
    a2c8:	3807883a 	mov	r3,r7
    a2cc:	180690fa 	slli	r3,r3,3
    a2d0:	1023883a 	mov	r17,r2
    a2d4:	04003fc4 	movi	r16,255
    a2d8:	003ef406 	br	9eac <_gp+0xffff7260>
    a2dc:	04003fc4 	movi	r16,255
    a2e0:	003ef206 	br	9eac <_gp+0xffff7260>
    a2e4:	00c00044 	movi	r3,1
    a2e8:	003f9606 	br	a144 <_gp+0xffff74f8>
    a2ec:	000b883a 	mov	r5,zero
    a2f0:	0005883a 	mov	r2,zero
    a2f4:	003f3506 	br	9fcc <_gp+0xffff7380>
    a2f8:	01402034 	movhi	r5,128
    a2fc:	297fffc4 	addi	r5,r5,-1
    a300:	0005883a 	mov	r2,zero
    a304:	003f2f06 	br	9fc4 <_gp+0xffff7378>
    a308:	3807883a 	mov	r3,r7
    a30c:	04003fc4 	movi	r16,255
    a310:	003ee606 	br	9eac <_gp+0xffff7260>
    a314:	3807883a 	mov	r3,r7
    a318:	003ee406 	br	9eac <_gp+0xffff7260>
    a31c:	00c00044 	movi	r3,1
    a320:	003fbd06 	br	a218 <_gp+0xffff75cc>
    a324:	0005883a 	mov	r2,zero
    a328:	003f2806 	br	9fcc <_gp+0xffff7380>

0000a32c <__fixsfsi>:
    a32c:	200ad5fa 	srli	r5,r4,23
    a330:	00c02034 	movhi	r3,128
    a334:	18ffffc4 	addi	r3,r3,-1
    a338:	29403fcc 	andi	r5,r5,255
    a33c:	00801f84 	movi	r2,126
    a340:	1906703a 	and	r3,r3,r4
    a344:	2008d7fa 	srli	r4,r4,31
    a348:	11400e0e 	bge	r2,r5,a384 <__fixsfsi+0x58>
    a34c:	00802744 	movi	r2,157
    a350:	11400816 	blt	r2,r5,a374 <__fixsfsi+0x48>
    a354:	00802544 	movi	r2,149
    a358:	18c02034 	orhi	r3,r3,128
    a35c:	11400b0e 	bge	r2,r5,a38c <__fixsfsi+0x60>
    a360:	28bfda84 	addi	r2,r5,-150
    a364:	1884983a 	sll	r2,r3,r2
    a368:	20000726 	beq	r4,zero,a388 <__fixsfsi+0x5c>
    a36c:	0085c83a 	sub	r2,zero,r2
    a370:	f800283a 	ret
    a374:	00a00034 	movhi	r2,32768
    a378:	10bfffc4 	addi	r2,r2,-1
    a37c:	2085883a 	add	r2,r4,r2
    a380:	f800283a 	ret
    a384:	0005883a 	mov	r2,zero
    a388:	f800283a 	ret
    a38c:	00802584 	movi	r2,150
    a390:	1145c83a 	sub	r2,r2,r5
    a394:	1884d83a 	srl	r2,r3,r2
    a398:	003ff306 	br	a368 <_gp+0xffff771c>

0000a39c <__floatsisf>:
    a39c:	defffd04 	addi	sp,sp,-12
    a3a0:	dfc00215 	stw	ra,8(sp)
    a3a4:	dc400115 	stw	r17,4(sp)
    a3a8:	dc000015 	stw	r16,0(sp)
    a3ac:	20003526 	beq	r4,zero,a484 <__floatsisf+0xe8>
    a3b0:	2021883a 	mov	r16,r4
    a3b4:	2022d7fa 	srli	r17,r4,31
    a3b8:	20003616 	blt	r4,zero,a494 <__floatsisf+0xf8>
    a3bc:	8009883a 	mov	r4,r16
    a3c0:	000a4c00 	call	a4c0 <__clzsi2>
    a3c4:	00c02784 	movi	r3,158
    a3c8:	1887c83a 	sub	r3,r3,r2
    a3cc:	01002584 	movi	r4,150
    a3d0:	20c01416 	blt	r4,r3,a424 <__floatsisf+0x88>
    a3d4:	20c9c83a 	sub	r4,r4,r3
    a3d8:	8120983a 	sll	r16,r16,r4
    a3dc:	00802034 	movhi	r2,128
    a3e0:	10bfffc4 	addi	r2,r2,-1
    a3e4:	8809883a 	mov	r4,r17
    a3e8:	80a0703a 	and	r16,r16,r2
    a3ec:	18803fcc 	andi	r2,r3,255
    a3f0:	100695fa 	slli	r3,r2,23
    a3f4:	20803fcc 	andi	r2,r4,255
    a3f8:	100897fa 	slli	r4,r2,31
    a3fc:	00802034 	movhi	r2,128
    a400:	10bfffc4 	addi	r2,r2,-1
    a404:	8084703a 	and	r2,r16,r2
    a408:	10c4b03a 	or	r2,r2,r3
    a40c:	1104b03a 	or	r2,r2,r4
    a410:	dfc00217 	ldw	ra,8(sp)
    a414:	dc400117 	ldw	r17,4(sp)
    a418:	dc000017 	ldw	r16,0(sp)
    a41c:	dec00304 	addi	sp,sp,12
    a420:	f800283a 	ret
    a424:	01002644 	movi	r4,153
    a428:	20c01c16 	blt	r4,r3,a49c <__floatsisf+0x100>
    a42c:	20c9c83a 	sub	r4,r4,r3
    a430:	8120983a 	sll	r16,r16,r4
    a434:	013f0034 	movhi	r4,64512
    a438:	213fffc4 	addi	r4,r4,-1
    a43c:	814001cc 	andi	r5,r16,7
    a440:	8108703a 	and	r4,r16,r4
    a444:	28000426 	beq	r5,zero,a458 <__floatsisf+0xbc>
    a448:	840003cc 	andi	r16,r16,15
    a44c:	01400104 	movi	r5,4
    a450:	81400126 	beq	r16,r5,a458 <__floatsisf+0xbc>
    a454:	2149883a 	add	r4,r4,r5
    a458:	2141002c 	andhi	r5,r4,1024
    a45c:	28000526 	beq	r5,zero,a474 <__floatsisf+0xd8>
    a460:	00c027c4 	movi	r3,159
    a464:	1887c83a 	sub	r3,r3,r2
    a468:	00bf0034 	movhi	r2,64512
    a46c:	10bfffc4 	addi	r2,r2,-1
    a470:	2088703a 	and	r4,r4,r2
    a474:	202091ba 	slli	r16,r4,6
    a478:	8809883a 	mov	r4,r17
    a47c:	8020d27a 	srli	r16,r16,9
    a480:	003fda06 	br	a3ec <_gp+0xffff77a0>
    a484:	0009883a 	mov	r4,zero
    a488:	0007883a 	mov	r3,zero
    a48c:	0021883a 	mov	r16,zero
    a490:	003fd606 	br	a3ec <_gp+0xffff77a0>
    a494:	0121c83a 	sub	r16,zero,r4
    a498:	003fc806 	br	a3bc <_gp+0xffff7770>
    a49c:	01002e44 	movi	r4,185
    a4a0:	20c9c83a 	sub	r4,r4,r3
    a4a4:	01400144 	movi	r5,5
    a4a8:	8108983a 	sll	r4,r16,r4
    a4ac:	288bc83a 	sub	r5,r5,r2
    a4b0:	8160d83a 	srl	r16,r16,r5
    a4b4:	2008c03a 	cmpne	r4,r4,zero
    a4b8:	8120b03a 	or	r16,r16,r4
    a4bc:	003fdd06 	br	a434 <_gp+0xffff77e8>

0000a4c0 <__clzsi2>:
    a4c0:	00bfffd4 	movui	r2,65535
    a4c4:	11000536 	bltu	r2,r4,a4dc <__clzsi2+0x1c>
    a4c8:	00803fc4 	movi	r2,255
    a4cc:	11000f36 	bltu	r2,r4,a50c <__clzsi2+0x4c>
    a4d0:	00800804 	movi	r2,32
    a4d4:	0007883a 	mov	r3,zero
    a4d8:	00000506 	br	a4f0 <__clzsi2+0x30>
    a4dc:	00804034 	movhi	r2,256
    a4e0:	10bfffc4 	addi	r2,r2,-1
    a4e4:	11000c2e 	bgeu	r2,r4,a518 <__clzsi2+0x58>
    a4e8:	00800204 	movi	r2,8
    a4ec:	00c00604 	movi	r3,24
    a4f0:	20c8d83a 	srl	r4,r4,r3
    a4f4:	00c00074 	movhi	r3,1
    a4f8:	18ea9a84 	addi	r3,r3,-21910
    a4fc:	1909883a 	add	r4,r3,r4
    a500:	20c00003 	ldbu	r3,0(r4)
    a504:	10c5c83a 	sub	r2,r2,r3
    a508:	f800283a 	ret
    a50c:	00800604 	movi	r2,24
    a510:	00c00204 	movi	r3,8
    a514:	003ff606 	br	a4f0 <_gp+0xffff78a4>
    a518:	00800404 	movi	r2,16
    a51c:	1007883a 	mov	r3,r2
    a520:	003ff306 	br	a4f0 <_gp+0xffff78a4>

0000a524 <srand>:
    a524:	00800074 	movhi	r2,1
    a528:	10ab5e04 	addi	r2,r2,-21128
    a52c:	11000015 	stw	r4,0(r2)
    a530:	10000115 	stw	zero,4(r2)
    a534:	f800283a 	ret

0000a538 <rand>:
    a538:	defffe04 	addi	sp,sp,-8
    a53c:	dc000015 	stw	r16,0(sp)
    a540:	04000074 	movhi	r16,1
    a544:	842b5e04 	addi	r16,r16,-21128
    a548:	81000017 	ldw	r4,0(r16)
    a54c:	81400117 	ldw	r5,4(r16)
    a550:	01932574 	movhi	r6,19605
    a554:	01d614b4 	movhi	r7,22610
    a558:	319fcb44 	addi	r6,r6,32557
    a55c:	39fd0b44 	addi	r7,r7,-3027
    a560:	dfc00115 	stw	ra,4(sp)
    a564:	000a5980 	call	a598 <__muldi3>
    a568:	11000044 	addi	r4,r2,1
    a56c:	2085803a 	cmpltu	r2,r4,r2
    a570:	10c7883a 	add	r3,r2,r3
    a574:	00a00034 	movhi	r2,32768
    a578:	10bfffc4 	addi	r2,r2,-1
    a57c:	1884703a 	and	r2,r3,r2
    a580:	81000015 	stw	r4,0(r16)
    a584:	80c00115 	stw	r3,4(r16)
    a588:	dfc00117 	ldw	ra,4(sp)
    a58c:	dc000017 	ldw	r16,0(sp)
    a590:	dec00204 	addi	sp,sp,8
    a594:	f800283a 	ret

0000a598 <__muldi3>:
    a598:	defff604 	addi	sp,sp,-40
    a59c:	dd800615 	stw	r22,24(sp)
    a5a0:	dd400515 	stw	r21,20(sp)
    a5a4:	dc400115 	stw	r17,4(sp)
    a5a8:	357fffcc 	andi	r21,r6,65535
    a5ac:	2022d43a 	srli	r17,r4,16
    a5b0:	25bfffcc 	andi	r22,r4,65535
    a5b4:	dcc00315 	stw	r19,12(sp)
    a5b8:	dc800215 	stw	r18,8(sp)
    a5bc:	2027883a 	mov	r19,r4
    a5c0:	2825883a 	mov	r18,r5
    a5c4:	b009883a 	mov	r4,r22
    a5c8:	a80b883a 	mov	r5,r21
    a5cc:	dfc00915 	stw	ra,36(sp)
    a5d0:	df000815 	stw	fp,32(sp)
    a5d4:	ddc00715 	stw	r23,28(sp)
    a5d8:	3839883a 	mov	fp,r7
    a5dc:	302ed43a 	srli	r23,r6,16
    a5e0:	dd000415 	stw	r20,16(sp)
    a5e4:	dc000015 	stw	r16,0(sp)
    a5e8:	3029883a 	mov	r20,r6
    a5ec:	00095b00 	call	95b0 <__mulsi3>
    a5f0:	a80b883a 	mov	r5,r21
    a5f4:	8809883a 	mov	r4,r17
    a5f8:	1021883a 	mov	r16,r2
    a5fc:	00095b00 	call	95b0 <__mulsi3>
    a600:	8809883a 	mov	r4,r17
    a604:	b80b883a 	mov	r5,r23
    a608:	102b883a 	mov	r21,r2
    a60c:	00095b00 	call	95b0 <__mulsi3>
    a610:	b80b883a 	mov	r5,r23
    a614:	b009883a 	mov	r4,r22
    a618:	1023883a 	mov	r17,r2
    a61c:	00095b00 	call	95b0 <__mulsi3>
    a620:	8006d43a 	srli	r3,r16,16
    a624:	1545883a 	add	r2,r2,r21
    a628:	1885883a 	add	r2,r3,r2
    a62c:	1540022e 	bgeu	r2,r21,a638 <__muldi3+0xa0>
    a630:	00c00074 	movhi	r3,1
    a634:	88e3883a 	add	r17,r17,r3
    a638:	1006d43a 	srli	r3,r2,16
    a63c:	1004943a 	slli	r2,r2,16
    a640:	e00b883a 	mov	r5,fp
    a644:	9809883a 	mov	r4,r19
    a648:	843fffcc 	andi	r16,r16,65535
    a64c:	1c63883a 	add	r17,r3,r17
    a650:	1421883a 	add	r16,r2,r16
    a654:	00095b00 	call	95b0 <__mulsi3>
    a658:	900b883a 	mov	r5,r18
    a65c:	a009883a 	mov	r4,r20
    a660:	1027883a 	mov	r19,r2
    a664:	00095b00 	call	95b0 <__mulsi3>
    a668:	9885883a 	add	r2,r19,r2
    a66c:	1447883a 	add	r3,r2,r17
    a670:	8005883a 	mov	r2,r16
    a674:	dfc00917 	ldw	ra,36(sp)
    a678:	df000817 	ldw	fp,32(sp)
    a67c:	ddc00717 	ldw	r23,28(sp)
    a680:	dd800617 	ldw	r22,24(sp)
    a684:	dd400517 	ldw	r21,20(sp)
    a688:	dd000417 	ldw	r20,16(sp)
    a68c:	dcc00317 	ldw	r19,12(sp)
    a690:	dc800217 	ldw	r18,8(sp)
    a694:	dc400117 	ldw	r17,4(sp)
    a698:	dc000017 	ldw	r16,0(sp)
    a69c:	dec00a04 	addi	sp,sp,40
    a6a0:	f800283a 	ret

0000a6a4 <alt_load>:
 * there is no bootloader, so this application is responsible for loading to
 * RAM any sections that are required.
 */  

void alt_load (void)
{
    a6a4:	deffff04 	addi	sp,sp,-4

static void ALT_INLINE alt_load_section (alt_u32* from, 
                                         alt_u32* to, 
                                         alt_u32* end)
{
  if (to != from)
    a6a8:	01800074 	movhi	r6,1
    a6ac:	01c00074 	movhi	r7,1
    a6b0:	dfc00015 	stw	ra,0(sp)
    a6b4:	31aadb04 	addi	r6,r6,-21652
    a6b8:	39eb1704 	addi	r7,r7,-21412
    a6bc:	31c01026 	beq	r6,r7,a700 <alt_load+0x5c>
  {
    while( to != end )
    a6c0:	00800074 	movhi	r2,1
    a6c4:	10ab1704 	addi	r2,r2,-21412
    a6c8:	30800d26 	beq	r6,r2,a700 <alt_load+0x5c>
    a6cc:	30c00104 	addi	r3,r6,4
    a6d0:	10c7c83a 	sub	r3,r2,r3
    a6d4:	1806d0ba 	srli	r3,r3,2
    a6d8:	0005883a 	mov	r2,zero
    a6dc:	18c00044 	addi	r3,r3,1
    a6e0:	18c7883a 	add	r3,r3,r3
    a6e4:	18c7883a 	add	r3,r3,r3
    {
      *to++ = *from++;
    a6e8:	11c9883a 	add	r4,r2,r7
    a6ec:	21400017 	ldw	r5,0(r4)
    a6f0:	1189883a 	add	r4,r2,r6
    a6f4:	10800104 	addi	r2,r2,4
    a6f8:	21400015 	stw	r5,0(r4)
                                         alt_u32* to, 
                                         alt_u32* end)
{
  if (to != from)
  {
    while( to != end )
    a6fc:	10fffa1e 	bne	r2,r3,a6e8 <_gp+0xffff7a9c>

static void ALT_INLINE alt_load_section (alt_u32* from, 
                                         alt_u32* to, 
                                         alt_u32* end)
{
  if (to != from)
    a700:	01800074 	movhi	r6,1
    a704:	01c00074 	movhi	r7,1
    a708:	31a00804 	addi	r6,r6,-32736
    a70c:	39e00804 	addi	r7,r7,-32736
    a710:	31c01026 	beq	r6,r7,a754 <alt_load+0xb0>
  {
    while( to != end )
    a714:	00800074 	movhi	r2,1
    a718:	10a00804 	addi	r2,r2,-32736
    a71c:	30800d26 	beq	r6,r2,a754 <alt_load+0xb0>
    a720:	30c00104 	addi	r3,r6,4
    a724:	10c7c83a 	sub	r3,r2,r3
    a728:	1806d0ba 	srli	r3,r3,2
    a72c:	0005883a 	mov	r2,zero
    a730:	18c00044 	addi	r3,r3,1
    a734:	18c7883a 	add	r3,r3,r3
    a738:	18c7883a 	add	r3,r3,r3
    {
      *to++ = *from++;
    a73c:	11c9883a 	add	r4,r2,r7
    a740:	21400017 	ldw	r5,0(r4)
    a744:	1189883a 	add	r4,r2,r6
    a748:	10800104 	addi	r2,r2,4
    a74c:	21400015 	stw	r5,0(r4)
                                         alt_u32* to, 
                                         alt_u32* end)
{
  if (to != from)
  {
    while( to != end )
    a750:	18bffa1e 	bne	r3,r2,a73c <_gp+0xffff7af0>

static void ALT_INLINE alt_load_section (alt_u32* from, 
                                         alt_u32* to, 
                                         alt_u32* end)
{
  if (to != from)
    a754:	01800074 	movhi	r6,1
    a758:	01c00074 	movhi	r7,1
    a75c:	31aa8b04 	addi	r6,r6,-21972
    a760:	39ea8b04 	addi	r7,r7,-21972
    a764:	31c01026 	beq	r6,r7,a7a8 <alt_load+0x104>
  {
    while( to != end )
    a768:	00800074 	movhi	r2,1
    a76c:	10aadb04 	addi	r2,r2,-21652
    a770:	30800d26 	beq	r6,r2,a7a8 <alt_load+0x104>
    a774:	30c00104 	addi	r3,r6,4
    a778:	10c7c83a 	sub	r3,r2,r3
    a77c:	1806d0ba 	srli	r3,r3,2
    a780:	0005883a 	mov	r2,zero
    a784:	18c00044 	addi	r3,r3,1
    a788:	18c7883a 	add	r3,r3,r3
    a78c:	18c7883a 	add	r3,r3,r3
    {
      *to++ = *from++;
    a790:	11c9883a 	add	r4,r2,r7
    a794:	21400017 	ldw	r5,0(r4)
    a798:	1189883a 	add	r4,r2,r6
    a79c:	10800104 	addi	r2,r2,4
    a7a0:	21400015 	stw	r5,0(r4)
                                         alt_u32* to, 
                                         alt_u32* end)
{
  if (to != from)
  {
    while( to != end )
    a7a4:	10fffa1e 	bne	r2,r3,a790 <_gp+0xffff7b44>
  
  /*
   * Now ensure that the caches are in synch.
   */
  
  alt_dcache_flush_all();
    a7a8:	000a8580 	call	a858 <alt_dcache_flush_all>
  alt_icache_flush_all();
}
    a7ac:	dfc00017 	ldw	ra,0(sp)
    a7b0:	dec00104 	addi	sp,sp,4
  /*
   * Now ensure that the caches are in synch.
   */
  
  alt_dcache_flush_all();
  alt_icache_flush_all();
    a7b4:	000a85c1 	jmpi	a85c <alt_icache_flush_all>

0000a7b8 <alt_main>:
 * devices/filesystems/components in the system; and call the entry point for
 * the users application, i.e. main().
 */

void alt_main (void)
{
    a7b8:	defffe04 	addi	sp,sp,-8
#endif

  /* ALT LOG - please see HAL/sys/alt_log_printf.h for details */
  ALT_LOG_PRINT_BOOT("[alt_main.c] Entering alt_main, calling alt_irq_init.\r\n");
  /* Initialize the interrupt controller. */
  alt_irq_init (NULL);
    a7bc:	0009883a 	mov	r4,zero
 * devices/filesystems/components in the system; and call the entry point for
 * the users application, i.e. main().
 */

void alt_main (void)
{
    a7c0:	dfc00115 	stw	ra,4(sp)
    a7c4:	dc000015 	stw	r16,0(sp)
#endif

  /* ALT LOG - please see HAL/sys/alt_log_printf.h for details */
  ALT_LOG_PRINT_BOOT("[alt_main.c] Entering alt_main, calling alt_irq_init.\r\n");
  /* Initialize the interrupt controller. */
  alt_irq_init (NULL);
    a7c8:	000a7f40 	call	a7f4 <alt_irq_init>
  ALT_LOG_PRINT_BOOT("[alt_main.c] Done OS Init, calling alt_sem_create.\r\n");
  ALT_SEM_CREATE (&alt_fd_list_lock, 1);

  /* Initialize the device drivers/software components. */
  ALT_LOG_PRINT_BOOT("[alt_main.c] Calling alt_sys_init.\r\n");
  alt_sys_init();
    a7cc:	000a8140 	call	a814 <alt_sys_init>
  ALT_LOG_PRINT_BOOT("[alt_main.c] Calling main.\r\n");

#ifdef ALT_NO_EXIT
  main (alt_argc, alt_argv, alt_envp);
#else
  result = main (alt_argc, alt_argv, alt_envp);
    a7d0:	d1a04d17 	ldw	r6,-32460(gp)
    a7d4:	d1604e17 	ldw	r5,-32456(gp)
    a7d8:	d1204f17 	ldw	r4,-32452(gp)
    a7dc:	000805c0 	call	805c <main>
  close(STDOUT_FILENO);
    a7e0:	01000044 	movi	r4,1
  ALT_LOG_PRINT_BOOT("[alt_main.c] Calling main.\r\n");

#ifdef ALT_NO_EXIT
  main (alt_argc, alt_argv, alt_envp);
#else
  result = main (alt_argc, alt_argv, alt_envp);
    a7e4:	1021883a 	mov	r16,r2
  close(STDOUT_FILENO);
    a7e8:	000a8180 	call	a818 <close>
  exit (result);
    a7ec:	8009883a 	mov	r4,r16
    a7f0:	000a8680 	call	a868 <exit>

0000a7f4 <alt_irq_init>:
 * The "base" parameter is ignored and only
 * present for backwards-compatibility.
 */

void alt_irq_init ( const void* base )
{
    a7f4:	deffff04 	addi	sp,sp,-4
    a7f8:	dfc00015 	stw	ra,0(sp)
    ALTERA_NIOS2_GEN2_IRQ_INIT ( NIOS2_GEN2, nios2_gen2);
    a7fc:	000a8600 	call	a860 <altera_nios2_gen2_irq_init>
 * alt_irq_cpu_enable_interrupts() enables the CPU to start taking interrupts.
 */
static ALT_INLINE void ALT_ALWAYS_INLINE 
       alt_irq_cpu_enable_interrupts (void)
{
    NIOS2_WRITE_STATUS(NIOS2_STATUS_PIE_MSK
    a800:	00800044 	movi	r2,1
    a804:	1001703a 	wrctl	status,r2
    alt_irq_cpu_enable_interrupts();
}
    a808:	dfc00017 	ldw	ra,0(sp)
    a80c:	dec00104 	addi	sp,sp,4
    a810:	f800283a 	ret

0000a814 <alt_sys_init>:
 * Initialize the non-interrupt controller devices.
 * Called after alt_irq_init().
 */

void alt_sys_init( void )
{
    a814:	f800283a 	ret

0000a818 <close>:

extern int errno;

static ALT_INLINE int* alt_get_errno(void)
{
  return ((alt_errno) ? alt_errno() : &errno);
    a818:	d0a00117 	ldw	r2,-32764(gp)
    a81c:	10000926 	beq	r2,zero,a844 <close+0x2c>
#include "os/alt_syscall.h"

#ifdef ALT_USE_DIRECT_DRIVERS

int ALT_CLOSE (int fildes)
{
    a820:	deffff04 	addi	sp,sp,-4
    a824:	dfc00015 	stw	ra,0(sp)
    a828:	103ee83a 	callr	r2
  
  ALT_STUB_WARNING(close);
  
  /* Indicate an error */
  
  ALT_ERRNO = ENOSYS;
    a82c:	00c01604 	movi	r3,88
    a830:	10c00015 	stw	r3,0(r2)
  return -1;
}
    a834:	00bfffc4 	movi	r2,-1
    a838:	dfc00017 	ldw	ra,0(sp)
    a83c:	dec00104 	addi	sp,sp,4
    a840:	f800283a 	ret
    a844:	d0a05004 	addi	r2,gp,-32448
  
  ALT_STUB_WARNING(close);
  
  /* Indicate an error */
  
  ALT_ERRNO = ENOSYS;
    a848:	00c01604 	movi	r3,88
    a84c:	10c00015 	stw	r3,0(r2)
  return -1;
}
    a850:	00bfffc4 	movi	r2,-1
    a854:	f800283a 	ret

0000a858 <alt_dcache_flush_all>:
/*
 * alt_dcache_flush_all() is called to flush the entire data cache.
 */

void alt_dcache_flush_all (void)
{
    a858:	f800283a 	ret

0000a85c <alt_icache_flush_all>:
/*
 * alt_icache_flush_all() is called to flush the entire instruction cache.
 */

void alt_icache_flush_all (void)
{
    a85c:	f800283a 	ret

0000a860 <altera_nios2_gen2_irq_init>:
 * To initialize the internal interrupt controller, just clear the IENABLE
 * register so that all possible IRQs are disabled.
 */
void altera_nios2_gen2_irq_init(void) 
{
    NIOS2_WRITE_IENABLE(0);
    a860:	000170fa 	wrctl	ienable,zero
    a864:	f800283a 	ret

0000a868 <exit>:
    a868:	defffe04 	addi	sp,sp,-8
    a86c:	000b883a 	mov	r5,zero
    a870:	dc000015 	stw	r16,0(sp)
    a874:	dfc00115 	stw	ra,4(sp)
    a878:	2021883a 	mov	r16,r4
    a87c:	000a8880 	call	a888 <__call_exitprocs>
    a880:	8009883a 	mov	r4,r16
    a884:	000aa180 	call	aa18 <_exit>

0000a888 <__call_exitprocs>:
    a888:	defff504 	addi	sp,sp,-44
    a88c:	dd000515 	stw	r20,20(sp)
    a890:	05000074 	movhi	r20,1
    a894:	dc800315 	stw	r18,12(sp)
    a898:	dfc00a15 	stw	ra,40(sp)
    a89c:	df000915 	stw	fp,36(sp)
    a8a0:	ddc00815 	stw	r23,32(sp)
    a8a4:	dd800715 	stw	r22,28(sp)
    a8a8:	dd400615 	stw	r21,24(sp)
    a8ac:	dcc00415 	stw	r19,16(sp)
    a8b0:	dc400215 	stw	r17,8(sp)
    a8b4:	dc000115 	stw	r16,4(sp)
    a8b8:	d9000015 	stw	r4,0(sp)
    a8bc:	2825883a 	mov	r18,r5
    a8c0:	a52b1504 	addi	r20,r20,-21420
    a8c4:	a4400017 	ldw	r17,0(r20)
    a8c8:	8cc00c17 	ldw	r19,48(r17)
    a8cc:	8c400c04 	addi	r17,r17,48
    a8d0:	98004526 	beq	r19,zero,a9e8 <__call_exitprocs+0x160>
    a8d4:	9c000117 	ldw	r16,4(r19)
    a8d8:	00900034 	movhi	r2,16384
    a8dc:	10bfffc4 	addi	r2,r2,-1
    a8e0:	9d402217 	ldw	r21,136(r19)
    a8e4:	85bfffc4 	addi	r22,r16,-1
    a8e8:	80a1883a 	add	r16,r16,r2
    a8ec:	8421883a 	add	r16,r16,r16
    a8f0:	8421883a 	add	r16,r16,r16
    a8f4:	ac2f883a 	add	r23,r21,r16
    a8f8:	84000204 	addi	r16,r16,8
    a8fc:	9c21883a 	add	r16,r19,r16
    a900:	b0002716 	blt	r22,zero,a9a0 <__call_exitprocs+0x118>
    a904:	90000726 	beq	r18,zero,a924 <__call_exitprocs+0x9c>
    a908:	a800041e 	bne	r21,zero,a91c <__call_exitprocs+0x94>
    a90c:	b5bfffc4 	addi	r22,r22,-1
    a910:	bdffff04 	addi	r23,r23,-4
    a914:	843fff04 	addi	r16,r16,-4
    a918:	003ff906 	br	a900 <_gp+0xffff7cb4>
    a91c:	b9002017 	ldw	r4,128(r23)
    a920:	913ffa1e 	bne	r18,r4,a90c <_gp+0xffff7cc0>
    a924:	99000117 	ldw	r4,4(r19)
    a928:	82000017 	ldw	r8,0(r16)
    a92c:	213fffc4 	addi	r4,r4,-1
    a930:	b100021e 	bne	r22,r4,a93c <__call_exitprocs+0xb4>
    a934:	9d800115 	stw	r22,4(r19)
    a938:	00000106 	br	a940 <__call_exitprocs+0xb8>
    a93c:	80000015 	stw	zero,0(r16)
    a940:	403ff226 	beq	r8,zero,a90c <_gp+0xffff7cc0>
    a944:	9f000117 	ldw	fp,4(r19)
    a948:	a8000526 	beq	r21,zero,a960 <__call_exitprocs+0xd8>
    a94c:	00800044 	movi	r2,1
    a950:	1592983a 	sll	r9,r2,r22
    a954:	a9404017 	ldw	r5,256(r21)
    a958:	494a703a 	and	r5,r9,r5
    a95c:	2800021e 	bne	r5,zero,a968 <__call_exitprocs+0xe0>
    a960:	403ee83a 	callr	r8
    a964:	00000906 	br	a98c <__call_exitprocs+0x104>
    a968:	a9004117 	ldw	r4,260(r21)
    a96c:	4908703a 	and	r4,r9,r4
    a970:	2000041e 	bne	r4,zero,a984 <__call_exitprocs+0xfc>
    a974:	b9400017 	ldw	r5,0(r23)
    a978:	d9000017 	ldw	r4,0(sp)
    a97c:	403ee83a 	callr	r8
    a980:	00000206 	br	a98c <__call_exitprocs+0x104>
    a984:	b9000017 	ldw	r4,0(r23)
    a988:	403ee83a 	callr	r8
    a98c:	99000117 	ldw	r4,4(r19)
    a990:	e13fcc1e 	bne	fp,r4,a8c4 <_gp+0xffff7c78>
    a994:	89000017 	ldw	r4,0(r17)
    a998:	993fdc26 	beq	r19,r4,a90c <_gp+0xffff7cc0>
    a99c:	003fc906 	br	a8c4 <_gp+0xffff7c78>
    a9a0:	00800034 	movhi	r2,0
    a9a4:	10800004 	addi	r2,r2,0
    a9a8:	10000f26 	beq	r2,zero,a9e8 <__call_exitprocs+0x160>
    a9ac:	99400117 	ldw	r5,4(r19)
    a9b0:	99000017 	ldw	r4,0(r19)
    a9b4:	2800091e 	bne	r5,zero,a9dc <__call_exitprocs+0x154>
    a9b8:	20000826 	beq	r4,zero,a9dc <__call_exitprocs+0x154>
    a9bc:	89000015 	stw	r4,0(r17)
    a9c0:	a8000226 	beq	r21,zero,a9cc <__call_exitprocs+0x144>
    a9c4:	a809883a 	mov	r4,r21
    a9c8:	00000000 	call	0 <__alt_mem_RAM-0x8000>
    a9cc:	9809883a 	mov	r4,r19
    a9d0:	00000000 	call	0 <__alt_mem_RAM-0x8000>
    a9d4:	8cc00017 	ldw	r19,0(r17)
    a9d8:	003fbd06 	br	a8d0 <_gp+0xffff7c84>
    a9dc:	9823883a 	mov	r17,r19
    a9e0:	2027883a 	mov	r19,r4
    a9e4:	003fba06 	br	a8d0 <_gp+0xffff7c84>
    a9e8:	dfc00a17 	ldw	ra,40(sp)
    a9ec:	df000917 	ldw	fp,36(sp)
    a9f0:	ddc00817 	ldw	r23,32(sp)
    a9f4:	dd800717 	ldw	r22,28(sp)
    a9f8:	dd400617 	ldw	r21,24(sp)
    a9fc:	dd000517 	ldw	r20,20(sp)
    aa00:	dcc00417 	ldw	r19,16(sp)
    aa04:	dc800317 	ldw	r18,12(sp)
    aa08:	dc400217 	ldw	r17,8(sp)
    aa0c:	dc000117 	ldw	r16,4(sp)
    aa10:	dec00b04 	addi	sp,sp,44
    aa14:	f800283a 	ret

0000aa18 <_exit>:
  __asm__ volatile ("\n0:\n\taddi %0,%0, -1\n\tbgt %0,zero,0b" : : "r" (ALT_CPU_FREQ/100) ); /* Delay for >30ms */

  __asm__ volatile ("break 2" : : "r"(r2), "r"(r3) ALT_GMON_DATA );

#else /* !DEBUG_STUB */
  if (r2) {
    aa18:	20000226 	beq	r4,zero,aa24 <_exit+0xc>
    ALT_SIM_FAIL();
    aa1c:	002af070 	cmpltui	zero,zero,43969
    aa20:	003fff06 	br	aa20 <_gp+0xffff7dd4>
  } else {
    ALT_SIM_PASS();
    aa24:	002af0b0 	cmpltui	zero,zero,43970
    aa28:	003ffd06 	br	aa20 <_gp+0xffff7dd4>
